CCS PCM C Compiler, Version 4.032, 62930               24-8-15 00:03

               Filename: main.lst

               ROM used: 6418 words (78%)
                         Largest free fragment is 1400
               RAM used: 146 (83%) at main() level
                         169 (97%) worst case
               Stack:    9 worst case (7 in main + 2 for interrupts)

*
0000:  NOP
0001:  MOVLW  18
0002:  MOVWF  0A
0003:  GOTO   000
0004:  MOVWF  7F
0005:  SWAPF  03,W
0006:  CLRF   03
0007:  MOVWF  21
0008:  MOVF   0A,W
0009:  MOVWF  20
000A:  CLRF   0A
000B:  MOVF   04,W
000C:  MOVWF  22
000D:  MOVF   77,W
000E:  MOVWF  23
000F:  MOVF   78,W
0010:  MOVWF  24
0011:  MOVF   79,W
0012:  MOVWF  25
0013:  MOVF   7A,W
0014:  MOVWF  26
0015:  MOVF   7B,W
0016:  MOVWF  27
0017:  BCF    03.7
0018:  BCF    03.5
0019:  MOVLW  8C
001A:  MOVWF  04
001B:  BTFSS  00.5
001C:  GOTO   01F
001D:  BTFSC  0C.5
001E:  GOTO   038
001F:  MOVLW  8C
0020:  MOVWF  04
0021:  BTFSS  00.1
0022:  GOTO   025
0023:  BTFSC  0C.1
0024:  GOTO   03B
0025:  MOVF   22,W
0026:  MOVWF  04
0027:  MOVF   23,W
0028:  MOVWF  77
0029:  MOVF   24,W
002A:  MOVWF  78
002B:  MOVF   25,W
002C:  MOVWF  79
002D:  MOVF   26,W
002E:  MOVWF  7A
002F:  MOVF   27,W
0030:  MOVWF  7B
0031:  MOVF   20,W
0032:  MOVWF  0A
0033:  SWAPF  21,W
0034:  MOVWF  03
0035:  SWAPF  7F,F
0036:  SWAPF  7F,W
0037:  RETFIE
0038:  BCF    0A.3
0039:  BCF    0A.4
003A:  GOTO   53B
003B:  BCF    0A.3
003C:  BCF    0A.4
003D:  GOTO   56C
.................... ///////////////////////////////////////////////////////////////////////// 
.................... //	Project Name 	: Input for EW Inverter   
.................... //	File Name	 	: main.c 
.................... // 
.................... //  Start 			: 2007.07.13 Friday 
.................... // 
.................... /////////////////////////////////////////////////////////////////////////// 
....................  
.................... // must be added below codeing to origin 16F877A.H file 
.................... #device PIC16F877A 
003E:  BCF    0A.0
003F:  BCF    0A.1
0040:  BCF    0A.2
0041:  ADDWF  02,F
0042:  RETLW  20
0043:  RETLW  20
0044:  RETLW  20
0045:  RETLW  20
0046:  RETLW  20
0047:  RETLW  20
0048:  RETLW  20
0049:  RETLW  20
004A:  RETLW  20
004B:  RETLW  20
004C:  RETLW  20
004D:  RETLW  20
004E:  RETLW  20
004F:  RETLW  20
0050:  RETLW  20
0051:  RETLW  20
0052:  RETLW  20
0053:  RETLW  20
0054:  RETLW  20
0055:  RETLW  20
0056:  RETLW  00
0057:  BCF    0A.0
0058:  BCF    0A.1
0059:  BCF    0A.2
005A:  ADDWF  02,F
005B:  RETLW  5B
005C:  RETLW  45
005D:  RETLW  44
005E:  RETLW  49
005F:  RETLW  54
0060:  RETLW  5D
0061:  RETLW  20
0062:  RETLW  30
0063:  RETLW  30
0064:  RETLW  30
0065:  RETLW  3A
0066:  RETLW  30
0067:  RETLW  2E
0068:  RETLW  30
0069:  RETLW  30
006A:  RETLW  30
006B:  RETLW  65
006C:  RETLW  2B
006D:  RETLW  30
006E:  RETLW  20
006F:  RETLW  00
0070:  BCF    0A.0
0071:  BCF    0A.1
0072:  BCF    0A.2
0073:  ADDWF  02,F
0074:  RETLW  00
0075:  RETLW  07
0076:  RETLW  00
0077:  RETLW  08
0078:  RETLW  00
0079:  RETLW  09
007A:  RETLW  00
007B:  RETLW  0B
007C:  RETLW  00
007D:  RETLW  0D
007E:  RETLW  00
007F:  RETLW  0E
0080:  RETLW  00
0081:  RETLW  0F
0082:  RETLW  00
0083:  RETLW  11
0084:  RETLW  00
0085:  RETLW  12
0086:  BCF    0A.0
0087:  BCF    0A.1
0088:  BCF    0A.2
0089:  ADDWF  02,F
008A:  RETLW  39
008B:  RETLW  3A
008C:  RETLW  34
008D:  RETLW  3A
008E:  RETLW  39
008F:  RETLW  30
0090:  RETLW  35
0091:  RETLW  3A
0092:  RETLW  30
0093:  RETLW  2E
0094:  RETLW  30
0095:  RETLW  30
0096:  RETLW  30
0097:  RETLW  65
0098:  RETLW  2D
0099:  RETLW  30
009A:  RETLW  00
009B:  BCF    0A.0
009C:  BCF    0A.1
009D:  BCF    0A.2
009E:  ADDWF  02,F
009F:  RETLW  39
00A0:  RETLW  3A
00A1:  RETLW  34
00A2:  RETLW  3A
00A3:  RETLW  39
00A4:  RETLW  30
00A5:  RETLW  35
00A6:  RETLW  3A
00A7:  RETLW  31
00A8:  RETLW  2E
00A9:  RETLW  30
00AA:  RETLW  30
00AB:  RETLW  30
00AC:  RETLW  65
00AD:  RETLW  2D
00AE:  RETLW  30
00AF:  RETLW  00
00B0:  BCF    0A.0
00B1:  BCF    0A.1
00B2:  BCF    0A.2
00B3:  ADDWF  02,F
00B4:  RETLW  39
00B5:  RETLW  3A
00B6:  RETLW  34
00B7:  RETLW  3A
00B8:  RETLW  39
00B9:  RETLW  30
00BA:  RETLW  35
00BB:  RETLW  3A
00BC:  RETLW  32
00BD:  RETLW  2E
00BE:  RETLW  30
00BF:  RETLW  30
00C0:  RETLW  30
00C1:  RETLW  65
00C2:  RETLW  2D
00C3:  RETLW  30
00C4:  RETLW  00
00C5:  BCF    0A.0
00C6:  BCF    0A.1
00C7:  BCF    0A.2
00C8:  ADDWF  02,F
00C9:  RETLW  39
00CA:  RETLW  3A
00CB:  RETLW  34
00CC:  RETLW  3A
00CD:  RETLW  39
00CE:  RETLW  30
00CF:  RETLW  35
00D0:  RETLW  3A
00D1:  RETLW  33
00D2:  RETLW  2E
00D3:  RETLW  30
00D4:  RETLW  30
00D5:  RETLW  30
00D6:  RETLW  65
00D7:  RETLW  2D
00D8:  RETLW  30
00D9:  RETLW  00
00DA:  BCF    0A.0
00DB:  BCF    0A.1
00DC:  BCF    0A.2
00DD:  ADDWF  02,F
00DE:  RETLW  39
00DF:  RETLW  3A
00E0:  RETLW  34
00E1:  RETLW  3A
00E2:  RETLW  39
00E3:  RETLW  30
00E4:  RETLW  31
00E5:  RETLW  3A
00E6:  RETLW  30
00E7:  RETLW  2E
00E8:  RETLW  30
00E9:  RETLW  30
00EA:  RETLW  30
00EB:  RETLW  65
00EC:  RETLW  2D
00ED:  RETLW  30
00EE:  RETLW  00
00EF:  BCF    0A.0
00F0:  BCF    0A.1
00F1:  BCF    0A.2
00F2:  ADDLW  F6
00F3:  BTFSC  03.0
00F4:  INCF   0A,F
00F5:  MOVWF  02
00F6:  RETLW  39
00F7:  RETLW  3A
00F8:  RETLW  34
00F9:  RETLW  3A
00FA:  RETLW  39
00FB:  RETLW  30
00FC:  RETLW  32
00FD:  RETLW  3A
00FE:  RETLW  30
00FF:  RETLW  2E
0100:  RETLW  30
0101:  RETLW  30
0102:  RETLW  30
0103:  RETLW  65
0104:  RETLW  2D
0105:  RETLW  30
0106:  RETLW  00
0107:  BSF    0A.0
0108:  BCF    0A.1
0109:  BCF    0A.2
010A:  ADDWF  02,F
010B:  RETLW  39
010C:  RETLW  3A
010D:  RETLW  34
010E:  RETLW  3A
010F:  RETLW  39
0110:  RETLW  30
0111:  RETLW  32
0112:  RETLW  3A
0113:  RETLW  31
0114:  RETLW  2E
0115:  RETLW  30
0116:  RETLW  30
0117:  RETLW  30
0118:  RETLW  65
0119:  RETLW  2D
011A:  RETLW  30
011B:  RETLW  00
011C:  BSF    0A.0
011D:  BCF    0A.1
011E:  BCF    0A.2
011F:  ADDWF  02,F
0120:  RETLW  39
0121:  RETLW  3A
0122:  RETLW  34
0123:  RETLW  3A
0124:  RETLW  39
0125:  RETLW  30
0126:  RETLW  32
0127:  RETLW  3A
0128:  RETLW  32
0129:  RETLW  2E
012A:  RETLW  30
012B:  RETLW  30
012C:  RETLW  30
012D:  RETLW  65
012E:  RETLW  2D
012F:  RETLW  30
0130:  RETLW  00
0131:  BSF    0A.0
0132:  BCF    0A.1
0133:  BCF    0A.2
0134:  ADDWF  02,F
0135:  RETLW  39
0136:  RETLW  3A
0137:  RETLW  34
0138:  RETLW  3A
0139:  RETLW  39
013A:  RETLW  30
013B:  RETLW  32
013C:  RETLW  3A
013D:  RETLW  33
013E:  RETLW  2E
013F:  RETLW  30
0140:  RETLW  30
0141:  RETLW  30
0142:  RETLW  65
0143:  RETLW  2D
0144:  RETLW  30
0145:  RETLW  00
0146:  BSF    0A.0
0147:  BCF    0A.1
0148:  BCF    0A.2
0149:  ADDWF  02,F
014A:  RETLW  39
014B:  RETLW  3A
014C:  RETLW  34
014D:  RETLW  3A
014E:  RETLW  39
014F:  RETLW  30
0150:  RETLW  32
0151:  RETLW  3A
0152:  RETLW  34
0153:  RETLW  2E
0154:  RETLW  30
0155:  RETLW  30
0156:  RETLW  30
0157:  RETLW  65
0158:  RETLW  2D
0159:  RETLW  30
015A:  RETLW  00
015B:  BSF    0A.0
015C:  BCF    0A.1
015D:  BCF    0A.2
015E:  ADDWF  02,F
015F:  RETLW  20
0160:  RETLW  20
0161:  RETLW  2D
0162:  RETLW  2D
0163:  RETLW  2D
0164:  RETLW  20
0165:  RETLW  20
0166:  RETLW  20
0167:  RETLW  00
0168:  BSF    0A.0
0169:  BCF    0A.1
016A:  BCF    0A.2
016B:  ADDWF  02,F
016C:  RETLW  20
016D:  RETLW  2D
016E:  RETLW  20
016F:  RETLW  4D
0170:  RETLW  41
0171:  RETLW  49
0172:  RETLW  4E
0173:  RETLW  20
0174:  RETLW  4D
0175:  RETLW  45
0176:  RETLW  4E
0177:  RETLW  55
0178:  RETLW  20
0179:  RETLW  2D
017A:  RETLW  20
017B:  RETLW  20
017C:  RETLW  20
017D:  RETLW  32
017E:  RETLW  2F
017F:  RETLW  32
0180:  RETLW  00
0181:  BSF    0A.0
0182:  BCF    0A.1
0183:  BCF    0A.2
0184:  ADDWF  02,F
0185:  RETLW  20
0186:  RETLW  44
0187:  RETLW  41
0188:  RETLW  54
0189:  RETLW  45
018A:  RETLW  20
018B:  RETLW  26
018C:  RETLW  20
018D:  RETLW  54
018E:  RETLW  49
018F:  RETLW  4D
0190:  RETLW  45
0191:  RETLW  20
0192:  RETLW  53
0193:  RETLW  45
0194:  RETLW  54
0195:  RETLW  20
0196:  RETLW  20
0197:  RETLW  00
0198:  BSF    0A.0
0199:  BCF    0A.1
019A:  BCF    0A.2
019B:  ADDWF  02,F
019C:  RETLW  20
019D:  RETLW  52
019E:  RETLW  45
019F:  RETLW  43
01A0:  RETLW  4F
01A1:  RETLW  52
01A2:  RETLW  44
01A3:  RETLW  20
01A4:  RETLW  43
01A5:  RETLW  4C
01A6:  RETLW  45
01A7:  RETLW  41
01A8:  RETLW  52
01A9:  RETLW  20
01AA:  RETLW  41
01AB:  RETLW  4C
01AC:  RETLW  4C
01AD:  RETLW  20
01AE:  RETLW  00
01AF:  BSF    0A.0
01B0:  BCF    0A.1
01B1:  BCF    0A.2
01B2:  ADDWF  02,F
01B3:  RETLW  20
01B4:  RETLW  53
01B5:  RETLW  59
01B6:  RETLW  53
01B7:  RETLW  54
01B8:  RETLW  45
01B9:  RETLW  4D
01BA:  RETLW  20
01BB:  RETLW  49
01BC:  RETLW  4E
01BD:  RETLW  49
01BE:  RETLW  54
01BF:  RETLW  20
01C0:  RETLW  20
01C1:  RETLW  20
01C2:  RETLW  20
01C3:  RETLW  20
01C4:  RETLW  20
01C5:  RETLW  00
01C6:  BSF    0A.0
01C7:  BCF    0A.1
01C8:  BCF    0A.2
01C9:  ADDWF  02,F
01CA:  RETLW  20
01CB:  RETLW  50
01CC:  RETLW  4F
01CD:  RETLW  53
01CE:  RETLW  49
01CF:  RETLW  4F
01D0:  RETLW  4E
01D1:  RETLW  20
01D2:  RETLW  56
01D3:  RETLW  41
01D4:  RETLW  4C
01D5:  RETLW  55
01D6:  RETLW  45
01D7:  RETLW  20
01D8:  RETLW  54
01D9:  RETLW  45
01DA:  RETLW  53
01DB:  RETLW  54
01DC:  RETLW  00
01DD:  BSF    0A.0
01DE:  BCF    0A.1
01DF:  BCF    0A.2
01E0:  ADDWF  02,F
01E1:  RETLW  20
01E2:  RETLW  2D
01E3:  RETLW  20
01E4:  RETLW  4D
01E5:  RETLW  41
01E6:  RETLW  49
01E7:  RETLW  4E
01E8:  RETLW  20
01E9:  RETLW  4D
01EA:  RETLW  45
01EB:  RETLW  4E
01EC:  RETLW  55
01ED:  RETLW  20
01EE:  RETLW  2D
01EF:  RETLW  20
01F0:  RETLW  20
01F1:  RETLW  20
01F2:  RETLW  31
01F3:  RETLW  2F
01F4:  RETLW  32
01F5:  RETLW  00
01F6:  BSF    0A.0
01F7:  BCF    0A.1
01F8:  BCF    0A.2
01F9:  ADDLW  FD
01FA:  BTFSC  03.0
01FB:  INCF   0A,F
01FC:  MOVWF  02
01FD:  RETLW  20
01FE:  RETLW  45
01FF:  RETLW  44
0200:  RETLW  49
0201:  RETLW  54
0202:  RETLW  20
0203:  RETLW  43
0204:  RETLW  54
0205:  RETLW  52
0206:  RETLW  4C
0207:  RETLW  20
0208:  RETLW  44
0209:  RETLW  41
020A:  RETLW  54
020B:  RETLW  41
020C:  RETLW  20
020D:  RETLW  20
020E:  RETLW  20
020F:  RETLW  00
0210:  BCF    0A.0
0211:  BSF    0A.1
0212:  BCF    0A.2
0213:  ADDWF  02,F
0214:  RETLW  20
0215:  RETLW  54
0216:  RETLW  52
0217:  RETLW  49
0218:  RETLW  50
0219:  RETLW  20
021A:  RETLW  52
021B:  RETLW  45
021C:  RETLW  43
021D:  RETLW  4F
021E:  RETLW  52
021F:  RETLW  44
0220:  RETLW  20
0221:  RETLW  56
0222:  RETLW  49
0223:  RETLW  45
0224:  RETLW  57
0225:  RETLW  20
0226:  RETLW  20
0227:  RETLW  00
0228:  BCF    0A.0
0229:  BSF    0A.1
022A:  BCF    0A.2
022B:  ADDWF  02,F
022C:  RETLW  20
022D:  RETLW  53
022E:  RETLW  59
022F:  RETLW  53
0230:  RETLW  54
0231:  RETLW  45
0232:  RETLW  4D
0233:  RETLW  20
0234:  RETLW  52
0235:  RETLW  45
0236:  RETLW  53
0237:  RETLW  45
0238:  RETLW  54
0239:  RETLW  20
023A:  RETLW  20
023B:  RETLW  20
023C:  RETLW  20
023D:  RETLW  20
023E:  RETLW  00
023F:  BCF    0A.0
0240:  BSF    0A.1
0241:  BCF    0A.2
0242:  ADDWF  02,F
0243:  RETLW  4E
0244:  RETLW  4F
0245:  RETLW  20
0246:  RETLW  52
0247:  RETLW  65
0248:  RETLW  63
0249:  RETLW  65
024A:  RETLW  69
024B:  RETLW  76
024C:  RETLW  65
024D:  RETLW  64
024E:  RETLW  20
024F:  RETLW  44
0250:  RETLW  61
0251:  RETLW  74
0252:  RETLW  61
0253:  RETLW  00
0254:  BCF    0A.0
0255:  BSF    0A.1
0256:  BCF    0A.2
0257:  ADDWF  02,F
0258:  RETLW  54
0259:  RETLW  52
025A:  RETLW  49
025B:  RETLW  50
025C:  RETLW  20
025D:  RETLW  5B
025E:  RETLW  30
025F:  RETLW  5D
0260:  RETLW  00
0261:  BCF    0A.0
0262:  BSF    0A.1
0263:  BCF    0A.2
0264:  ADDWF  02,F
0265:  RETLW  39
0266:  RETLW  3A
0267:  RETLW  34
0268:  RETLW  3A
0269:  RETLW  39
026A:  RETLW  30
026B:  RETLW  33
026C:  RETLW  3A
026D:  RETLW  30
026E:  RETLW  2E
026F:  RETLW  30
0270:  RETLW  30
0271:  RETLW  30
0272:  RETLW  65
0273:  RETLW  2B
0274:  RETLW  31
0275:  RETLW  00
0276:  BCF    0A.0
0277:  BSF    0A.1
0278:  BCF    0A.2
0279:  ADDWF  02,F
027A:  RETLW  39
027B:  RETLW  3A
027C:  RETLW  34
027D:  RETLW  3A
027E:  RETLW  39
027F:  RETLW  30
0280:  RETLW  33
0281:  RETLW  3A
0282:  RETLW  30
0283:  RETLW  2E
0284:  RETLW  35
0285:  RETLW  30
0286:  RETLW  30
0287:  RETLW  65
0288:  RETLW  2B
0289:  RETLW  31
028A:  RETLW  00
028B:  BCF    0A.0
028C:  BSF    0A.1
028D:  BCF    0A.2
028E:  ADDWF  02,F
028F:  RETLW  39
0290:  RETLW  3A
0291:  RETLW  34
0292:  RETLW  3A
0293:  RETLW  39
0294:  RETLW  30
0295:  RETLW  33
0296:  RETLW  3A
0297:  RETLW  30
0298:  RETLW  2E
0299:  RETLW  36
029A:  RETLW  30
029B:  RETLW  30
029C:  RETLW  65
029D:  RETLW  2B
029E:  RETLW  31
029F:  RETLW  00
02A0:  BCF    0A.0
02A1:  BSF    0A.1
02A2:  BCF    0A.2
02A3:  ADDWF  02,F
02A4:  RETLW  39
02A5:  RETLW  3A
02A6:  RETLW  34
02A7:  RETLW  3A
02A8:  RETLW  39
02A9:  RETLW  30
02AA:  RETLW  33
02AB:  RETLW  3A
02AC:  RETLW  30
02AD:  RETLW  2E
02AE:  RETLW  34
02AF:  RETLW  30
02B0:  RETLW  30
02B1:  RETLW  65
02B2:  RETLW  2B
02B3:  RETLW  31
02B4:  RETLW  00
02B5:  BCF    0A.0
02B6:  BSF    0A.1
02B7:  BCF    0A.2
02B8:  ADDWF  02,F
02B9:  RETLW  20
02BA:  RETLW  2D
02BB:  RETLW  20
02BC:  RETLW  20
02BD:  RETLW  20
02BE:  RETLW  20
02BF:  RETLW  00
02C0:  BCF    0A.0
02C1:  BSF    0A.1
02C2:  BCF    0A.2
02C3:  ADDWF  02,F
02C4:  RETLW  39
02C5:  RETLW  3A
02C6:  RETLW  34
02C7:  RETLW  3A
02C8:  RETLW  39
02C9:  RETLW  30
02CA:  RETLW  33
02CB:  RETLW  3A
02CC:  RETLW  30
02CD:  RETLW  2E
02CE:  RETLW  31
02CF:  RETLW  30
02D0:  RETLW  30
02D1:  RETLW  65
02D2:  RETLW  2B
02D3:  RETLW  31
02D4:  RETLW  00
02D5:  BCF    0A.0
02D6:  BSF    0A.1
02D7:  BCF    0A.2
02D8:  ADDWF  02,F
02D9:  RETLW  20
02DA:  RETLW  20
02DB:  RETLW  20
02DC:  RETLW  20
02DD:  RETLW  20
02DE:  RETLW  20
02DF:  RETLW  20
02E0:  RETLW  20
02E1:  RETLW  20
02E2:  RETLW  20
02E3:  RETLW  00
02E4:  BCF    0A.0
02E5:  BSF    0A.1
02E6:  BCF    0A.2
02E7:  ADDWF  02,F
02E8:  RETLW  20
02E9:  RETLW  54
02EA:  RETLW  52
02EB:  RETLW  49
02EC:  RETLW  50
02ED:  RETLW  20
02EE:  RETLW  44
02EF:  RETLW  45
02F0:  RETLW  53
02F1:  RETLW  43
02F2:  RETLW  49
02F3:  RETLW  50
02F4:  RETLW  54
02F5:  RETLW  49
02F6:  RETLW  4F
02F7:  RETLW  4E
02F8:  RETLW  20
02F9:  RETLW  00
02FA:  NOP
02FB:  BSF    0A.0
02FC:  BSF    0A.1
02FD:  BCF    0A.2
02FE:  ADDLW  02
02FF:  BTFSC  03.0
0300:  INCF   0A,F
0301:  MOVWF  02
0302:  RETLW  20
0303:  RETLW  52
0304:  RETLW  45
0305:  RETLW  43
0306:  RETLW  4F
0307:  RETLW  52
0308:  RETLW  44
0309:  RETLW  20
030A:  RETLW  44
030B:  RETLW  41
030C:  RETLW  54
030D:  RETLW  45
030E:  RETLW  20
030F:  RETLW  20
0310:  RETLW  00
0311:  BSF    0A.0
0312:  BSF    0A.1
0313:  BCF    0A.2
0314:  ADDWF  02,F
0315:  RETLW  56
0316:  RETLW  44
0317:  RETLW  43
0318:  RETLW  3D
0319:  RETLW  20
031A:  RETLW  20
031B:  RETLW  20
031C:  RETLW  20
031D:  RETLW  20
031E:  RETLW  20
031F:  RETLW  00
0320:  BSF    0A.0
0321:  BSF    0A.1
0322:  BCF    0A.2
0323:  ADDWF  02,F
0324:  RETLW  44
0325:  RETLW  41
0326:  RETLW  54
0327:  RETLW  41
0328:  RETLW  3D
0329:  RETLW  20
032A:  RETLW  20
032B:  RETLW  20
032C:  RETLW  20
032D:  RETLW  20
032E:  RETLW  00
032F:  BSF    0A.0
0330:  BSF    0A.1
0331:  BCF    0A.2
0332:  ADDWF  02,F
0333:  RETLW  20
0334:  RETLW  53
0335:  RETLW  59
0336:  RETLW  53
0337:  RETLW  54
0338:  RETLW  45
0339:  RETLW  4D
033A:  RETLW  20
033B:  RETLW  52
033C:  RETLW  45
033D:  RETLW  53
033E:  RETLW  45
033F:  RETLW  54
0340:  RETLW  20
0341:  RETLW  4F
0342:  RETLW  4B
0343:  RETLW  3F
0344:  RETLW  20
0345:  RETLW  20
0346:  RETLW  00
0347:  BSF    0A.0
0348:  BSF    0A.1
0349:  BCF    0A.2
034A:  ADDWF  02,F
034B:  RETLW  20
034C:  RETLW  59
034D:  RETLW  45
034E:  RETLW  53
034F:  RETLW  20
0350:  RETLW  3D
0351:  RETLW  20
0352:  RETLW  50
0353:  RETLW  52
0354:  RETLW  45
0355:  RETLW  53
0356:  RETLW  53
0357:  RETLW  20
0358:  RETLW  5B
0359:  RETLW  52
035A:  RETLW  55
035B:  RETLW  4E
035C:  RETLW  5D
035D:  RETLW  00
035E:  BSF    0A.0
035F:  BSF    0A.1
0360:  BCF    0A.2
0361:  ADDWF  02,F
0362:  RETLW  39
0363:  RETLW  3A
0364:  RETLW  34
0365:  RETLW  3A
0366:  RETLW  39
0367:  RETLW  30
0368:  RETLW  32
0369:  RETLW  3A
036A:  RETLW  35
036B:  RETLW  2E
036C:  RETLW  30
036D:  RETLW  30
036E:  RETLW  30
036F:  RETLW  65
0370:  RETLW  2D
0371:  RETLW  30
0372:  RETLW  00
0373:  BSF    0A.0
0374:  BSF    0A.1
0375:  BCF    0A.2
0376:  ADDWF  02,F
0377:  RETLW  53
0378:  RETLW  59
0379:  RETLW  53
037A:  RETLW  54
037B:  RETLW  45
037C:  RETLW  4D
037D:  RETLW  20
037E:  RETLW  49
037F:  RETLW  4E
0380:  RETLW  49
0381:  RETLW  54
0382:  RETLW  20
0383:  RETLW  4F
0384:  RETLW  4B
0385:  RETLW  3F
0386:  RETLW  00
0387:  BSF    0A.0
0388:  BSF    0A.1
0389:  BCF    0A.2
038A:  ADDWF  02,F
038B:  RETLW  50
038C:  RETLW  52
038D:  RETLW  45
038E:  RETLW  53
038F:  RETLW  53
0390:  RETLW  20
0391:  RETLW  52
0392:  RETLW  55
0393:  RETLW  4E
0394:  RETLW  20
0395:  RETLW  52
0396:  RETLW  45
0397:  RETLW  53
0398:  RETLW  45
0399:  RETLW  54
039A:  RETLW  00
039B:  BSF    0A.0
039C:  BSF    0A.1
039D:  BCF    0A.2
039E:  ADDWF  02,F
039F:  RETLW  02
03A0:  RETLW  03
03A1:  RETLW  05
03A2:  RETLW  06
03A3:  RETLW  09
03A4:  RETLW  0A
03A5:  RETLW  0C
03A6:  RETLW  0D
03A7:  RETLW  0F
03A8:  RETLW  10
03A9:  RETLW  12
03AA:  RETLW  13
03AB:  BSF    0A.0
03AC:  BSF    0A.1
03AD:  BCF    0A.2
03AE:  ADDWF  02,F
03AF:  RETLW  44
03B0:  RETLW  41
03B1:  RETLW  54
03B2:  RETLW  45
03B3:  RETLW  20
03B4:  RETLW  26
03B5:  RETLW  20
03B6:  RETLW  54
03B7:  RETLW  49
03B8:  RETLW  4D
03B9:  RETLW  45
03BA:  RETLW  20
03BB:  RETLW  53
03BC:  RETLW  45
03BD:  RETLW  54
03BE:  RETLW  54
03BF:  RETLW  49
03C0:  RETLW  4E
03C1:  RETLW  47
03C2:  RETLW  20
03C3:  RETLW  00
03C4:  BSF    0A.0
03C5:  BSF    0A.1
03C6:  BCF    0A.2
03C7:  ADDWF  02,F
03C8:  RETLW  39
03C9:  RETLW  3A
03CA:  RETLW  34
03CB:  RETLW  3A
03CC:  RETLW  39
03CD:  RETLW  30
03CE:  RETLW  36
03CF:  RETLW  3A
03D0:  RETLW  30
03D1:  RETLW  2E
03D2:  RETLW  30
03D3:  RETLW  30
03D4:  RETLW  30
03D5:  RETLW  65
03D6:  RETLW  2D
03D7:  RETLW  30
03D8:  RETLW  00
03D9:  BSF    0A.0
03DA:  BSF    0A.1
03DB:  BCF    0A.2
03DC:  ADDWF  02,F
03DD:  RETLW  39
03DE:  RETLW  3A
03DF:  RETLW  34
03E0:  RETLW  3A
03E1:  RETLW  39
03E2:  RETLW  30
03E3:  RETLW  34
03E4:  RETLW  3A
03E5:  RETLW  30
03E6:  RETLW  2E
03E7:  RETLW  00
03E8:  BSF    0A.0
03E9:  BSF    0A.1
03EA:  BCF    0A.2
03EB:  ADDWF  02,F
03EC:  RETLW  39
03ED:  RETLW  3A
03EE:  RETLW  34
03EF:  RETLW  3A
03F0:  RETLW  39
03F1:  RETLW  30
03F2:  RETLW  34
03F3:  RETLW  3A
03F4:  RETLW  31
03F5:  RETLW  2E
03F6:  RETLW  00
03F7:  BSF    0A.0
03F8:  BSF    0A.1
03F9:  BCF    0A.2
03FA:  ADDLW  FE
03FB:  BTFSC  03.0
03FC:  INCF   0A,F
03FD:  MOVWF  02
03FE:  RETLW  20
03FF:  RETLW  52
0400:  RETLW  45
0401:  RETLW  43
0402:  RETLW  20
0403:  RETLW  43
0404:  RETLW  4C
0405:  RETLW  45
0406:  RETLW  41
0407:  RETLW  52
0408:  RETLW  20
0409:  RETLW  41
040A:  RETLW  4C
040B:  RETLW  4C
040C:  RETLW  21
040D:  RETLW  20
040E:  RETLW  4F
040F:  RETLW  4B
0410:  RETLW  3F
0411:  RETLW  20
0412:  RETLW  00
0413:  BCF    0A.0
0414:  BCF    0A.1
0415:  BSF    0A.2
0416:  ADDWF  02,F
0417:  RETLW  20
0418:  RETLW  59
0419:  RETLW  45
041A:  RETLW  53
041B:  RETLW  20
041C:  RETLW  20
041D:  RETLW  20
041E:  RETLW  20
041F:  RETLW  20
0420:  RETLW  4E
0421:  RETLW  4F
0422:  RETLW  20
0423:  RETLW  20
0424:  RETLW  20
0425:  RETLW  20
0426:  RETLW  20
0427:  RETLW  00
0428:  BCF    0A.0
0429:  BCF    0A.1
042A:  BSF    0A.2
042B:  ADDWF  02,F
042C:  RETLW  39
042D:  RETLW  3A
042E:  RETLW  34
042F:  RETLW  3A
0430:  RETLW  39
0431:  RETLW  30
0432:  RETLW  34
0433:  RETLW  3A
0434:  RETLW  32
0435:  RETLW  2E
0436:  RETLW  30
0437:  RETLW  30
0438:  RETLW  30
0439:  RETLW  65
043A:  RETLW  2D
043B:  RETLW  30
043C:  RETLW  00
043D:  BCF    0A.0
043E:  BCF    0A.1
043F:  BSF    0A.2
0440:  ADDWF  02,F
0441:  RETLW  20
0442:  RETLW  42
0443:  RETLW  41
0444:  RETLW  43
0445:  RETLW  4B
0446:  RETLW  55
0447:  RETLW  50
0448:  RETLW  20
0449:  RETLW  52
044A:  RETLW  45
044B:  RETLW  53
044C:  RETLW  54
044D:  RETLW  4F
044E:  RETLW  52
044F:  RETLW  45
0450:  RETLW  20
0451:  RETLW  4F
0452:  RETLW  4B
0453:  RETLW  3F
0454:  RETLW  00
0455:  BCF    0A.0
0456:  BCF    0A.1
0457:  BSF    0A.2
0458:  ADDWF  02,F
0459:  RETLW  20
045A:  RETLW  49
045B:  RETLW  4E
045C:  RETLW  49
045D:  RETLW  54
045E:  RETLW  20
045F:  RETLW  52
0460:  RETLW  45
0461:  RETLW  53
0462:  RETLW  54
0463:  RETLW  4F
0464:  RETLW  52
0465:  RETLW  45
0466:  RETLW  20
0467:  RETLW  4F
0468:  RETLW  4B
0469:  RETLW  3F
046A:  RETLW  20
046B:  RETLW  20
046C:  RETLW  00
046D:  BCF    0A.0
046E:  BCF    0A.1
046F:  BSF    0A.2
0470:  ADDWF  02,F
0471:  RETLW  39
0472:  RETLW  3A
0473:  RETLW  34
0474:  RETLW  3A
0475:  RETLW  39
0476:  RETLW  30
0477:  RETLW  37
0478:  RETLW  3A
0479:  RETLW  30
047A:  RETLW  2E
047B:  RETLW  30
047C:  RETLW  30
047D:  RETLW  30
047E:  RETLW  65
047F:  RETLW  2D
0480:  RETLW  30
0481:  RETLW  00
0482:  BCF    0A.0
0483:  BCF    0A.1
0484:  BSF    0A.2
0485:  ADDWF  02,F
0486:  RETLW  39
0487:  RETLW  3A
0488:  RETLW  34
0489:  RETLW  3A
048A:  RETLW  39
048B:  RETLW  30
048C:  RETLW  37
048D:  RETLW  3A
048E:  RETLW  31
048F:  RETLW  2E
0490:  RETLW  30
0491:  RETLW  30
0492:  RETLW  30
0493:  RETLW  65
0494:  RETLW  2D
0495:  RETLW  30
0496:  RETLW  00
0497:  BCF    0A.0
0498:  BCF    0A.1
0499:  BSF    0A.2
049A:  ADDWF  02,F
049B:  RETLW  44
049C:  RETLW  49
049D:  RETLW  47
049E:  RETLW  49
049F:  RETLW  54
04A0:  RETLW  41
04A1:  RETLW  4C
04A2:  RETLW  20
04A3:  RETLW  4F
04A4:  RETLW  50
04A5:  RETLW  45
04A6:  RETLW  52
04A7:  RETLW  41
04A8:  RETLW  54
04A9:  RETLW  20
04AA:  RETLW  20
04AB:  RETLW  20
04AC:  RETLW  20
04AD:  RETLW  20
04AE:  RETLW  20
04AF:  RETLW  00
04B0:  BCF    0A.0
04B1:  BCF    0A.1
04B2:  BSF    0A.2
04B3:  ADDWF  02,F
04B4:  RETLW  5B
04B5:  RETLW  45
04B6:  RETLW  77
04B7:  RETLW  44
04B8:  RETLW  6F
04B9:  RETLW  2D
04BA:  RETLW  32
04BB:  RETLW  31
04BC:  RETLW  5D
04BD:  RETLW  20
04BE:  RETLW  76
04BF:  RETLW  32
04C0:  RETLW  2E
04C1:  RETLW  36
04C2:  RETLW  30
04C3:  RETLW  20
04C4:  RETLW  20
04C5:  RETLW  20
04C6:  RETLW  20
04C7:  RETLW  20
04C8:  RETLW  00
04C9:  BCF    0A.0
04CA:  BCF    0A.1
04CB:  BSF    0A.2
04CC:  ADDWF  02,F
04CD:  RETLW  45
04CE:  RETLW  75
04CF:  RETLW  6E
04D0:  RETLW  57
04D1:  RETLW  68
04D2:  RETLW  6F
04D3:  RETLW  20
04D4:  RETLW  50
04D5:  RETLW  6F
04D6:  RETLW  77
04D7:  RETLW  65
04D8:  RETLW  72
04D9:  RETLW  20
04DA:  RETLW  45
04DB:  RETLW  6C
04DC:  RETLW  65
04DD:  RETLW  63
04DE:  RETLW  74
04DF:  RETLW  69
04E0:  RETLW  63
04E1:  RETLW  00
04E2:  BCF    0A.0
04E3:  BCF    0A.1
04E4:  BSF    0A.2
04E5:  ADDWF  02,F
04E6:  RETLW  54
04E7:  RETLW  45
04E8:  RETLW  4C
04E9:  RETLW  20
04EA:  RETLW  38
04EB:  RETLW  32
04EC:  RETLW  2D
04ED:  RETLW  35
04EE:  RETLW  31
04EF:  RETLW  2D
04F0:  RETLW  32
04F1:  RETLW  36
04F2:  RETLW  32
04F3:  RETLW  2D
04F4:  RETLW  37
04F5:  RETLW  35
04F6:  RETLW  33
04F7:  RETLW  32
04F8:  RETLW  20
04F9:  RETLW  20
04FA:  RETLW  00
*
06A8:  BCF    0A.0
06A9:  BSF    0A.1
06AA:  BSF    0A.2
06AB:  ADDWF  02,F
06AC:  GOTO   66F
06AD:  GOTO   672
06AE:  GOTO   676
06AF:  GOTO   67A
*
0857:  BCF    0A.0
0858:  BCF    0A.1
0859:  BCF    0A.2
085A:  ADDWF  02,F
085B:  GOTO   037
085C:  GOTO   03A
085D:  GOTO   03E
085E:  GOTO   042
....................  
.................... #device *=8 ICD=TRUE 
.................... #device ADC=8 
.................... #use delay(clock=8000000) 
*
0587:  MOVLW  E5
0588:  MOVWF  04
0589:  MOVF   00,W
058A:  BTFSC  03.2
058B:  GOTO   599
058C:  MOVLW  02
058D:  MOVWF  78
058E:  CLRF   77
058F:  DECFSZ 77,F
0590:  GOTO   58F
0591:  DECFSZ 78,F
0592:  GOTO   58E
0593:  MOVLW  97
0594:  MOVWF  77
0595:  DECFSZ 77,F
0596:  GOTO   595
0597:  DECFSZ 00,F
0598:  GOTO   58C
0599:  RETLW  00
.................... #fuses WDT,HS,PUT, NOPROTECT,LVP, NOCPD,BROWNOUT 
.................... #list 
....................  
.................... #include	<16F877A.h> 
.................... //////// Standard Header file for the PIC16F877A device //////////////// 
.................... //#device PIC16F877A 
.................... #list 
....................  
.................... #include 	<string.h> 
.................... //////////////////////////////////////////////////////////////////////////// 
.................... ////        (C) Copyright 1996,2003 Custom Computer Services            //// 
.................... //// This source code may only be used by licensed users of the CCS C   //// 
.................... //// compiler.  This source code may only be distributed to other       //// 
.................... //// licensed users of the CCS C compiler.  No other use, reproduction  //// 
.................... //// or distribution is permitted without written permission.           //// 
.................... //// Derivative programs created using this software in object code     //// 
.................... //// form are not restricted in any way.                                //// 
.................... //////////////////////////////////////////////////////////////////////////// 
....................  
.................... #ifndef _STRING 
.................... #define _STRING 
.................... #include <stddef.h> 
.................... /////////////////////////////////////////////////////////////////////////// 
.................... ////        (C) Copyright 1996,2003 Custom Computer Services           //// 
.................... //// This source code may only be used by licensed users of the CCS C  //// 
.................... //// compiler.  This source code may only be distributed to other      //// 
.................... //// licensed users of the CCS C compiler.  No other use, reproduction //// 
.................... //// or distribution is permitted without written permission.          //// 
.................... //// Derivative programs created using this software in object code    //// 
.................... //// form are not restricted in any way.                               //// 
.................... /////////////////////////////////////////////////////////////////////////// 
....................  
.................... #ifndef _STDDEF 
....................  
.................... #define _STDDEF 
....................  
.................... #if sizeof(int *)==1 
.................... #define ptrdiff_t int 
.................... #else 
.................... #define ptrdiff_t long 
.................... #endif 
....................  
.................... #define size_t int 
.................... #define wchar_t char 
.................... #define NULL 0 
....................  
.................... #define offsetof(s,f) (offsetofbit(s,f)/8) 
....................  
.................... #endif 
....................  
.................... #include <ctype.h> 
.................... //////////////////////////////////////////////////////////////////////////// 
.................... ////        (C) Copyright 1996,2003 Custom Computer Services            //// 
.................... //// This source code may only be used by licensed users of the CCS C   //// 
.................... //// compiler.  This source code may only be distributed to other       //// 
.................... //// licensed users of the CCS C compiler.  No other use, reproduction  //// 
.................... //// or distribution is permitted without written permission.           //// 
.................... //// Derivative programs created using this software in object code     //// 
.................... //// form are not restricted in any way.                                //// 
.................... //////////////////////////////////////////////////////////////////////////// 
....................  
.................... #ifndef _CTYPE 
.................... #define _CTYPE 
....................  
.................... #define islower(x)  isamong(x,"abcdefghijklmnopqrstuvwxyz") 
.................... #define isupper(x)  isamong(x,"ABCDEFGHIJKLMNOPQRSTUVWXYZ") 
.................... #define isalnum(x)  isamong(x,"0123456789ABCDEFGHIJKLMNOPQRSTUVWXYZabcdefghijklmnopqrstuvwxyz") 
.................... #define isalpha(x)  isamong(x,"ABCDEFGHIJKLMNOPQRSTUVWXYZabcdefghijklmnopqrstuvwxyz") 
.................... #define isdigit(x)  isamong(x,"0123456789") 
.................... #define isspace(x)  ((x)==' ') 
.................... #define isxdigit(x) isamong(x,"0123456789ABCDEFabcdef") 
.................... #define iscntrl(x)  ((x)<' ') 
.................... #define isprint(x)  ((x)>=' ') 
.................... #define isgraph(x)  ((x)>' ') 
.................... #define ispunct(x)  (((x)>' ')&&!isalnum(x)) 
....................  
.................... #endif 
....................  
....................  
....................  
....................  
....................  
.................... ////////////////////////////////////////////// 
.................... //// Uncomment the following define to    //// 
.................... //// allow some functions to use a        //// 
.................... //// quicker algorithm, but use more ROM  //// 
.................... ////                                      //// 
.................... //// #define FASTER_BUT_MORE_ROM          //// 
.................... ////////////////////////////////////////////// 
....................  
....................  
....................  
.................... /*Copying functions*/ 
.................... /* standard template: 
....................    void *memmove(void *s1, void *s2, size_t n). 
....................    Copies max of n characters safely (not following ending '\0') 
....................    from s2 in s1; if s2 has less than n characters, appends 0 */ 
....................  
.................... char *memmove(void *s1,char *s2,size_t n) 
.................... { 
....................    char *sc1; 
....................    char *sc2; 
....................    sc1=s1; 
....................    sc2=s2; 
....................    if(sc2<sc1 && sc1 <sc2 +n) 
....................       for(sc1+=n,sc2+=n;0<n;--n) 
....................          *--sc1=*--sc2; 
....................    else 
....................       for(;0<n;--n) 
....................          *sc1++=*sc2++; 
....................   return s1; 
....................   } 
....................  
.................... /* compiler ignored the name 'strcpy()'; perhaps, it's reserved? 
....................    Standard template: char *strcpy(char *s1, const char *s2) 
....................    copies the string s2 including the null character to s1*/ 
....................  
.................... char *strcopy(char *s1, char *s2) 
.................... { 
....................   char *s; 
....................  
....................   for (s = s1; *s2 != 0; s++, s2++) { 
....................      *s = *s2; 
....................   } 
....................   *s = *s2; 
....................   return(s1); 
.................... } 
....................  
.................... /* standard template: 
....................    char *strncpy(char *s1, const char *s2, size_t n). 
....................    Copies max of n characters (not following ending '\0') 
....................    from s2 in s1; if s2 has less than n characters, appends 0 */ 
....................  
.................... char *strncpy(char *s1, char *s2, size_t n) 
.................... { 
....................   char *s; 
....................  
....................   for (s = s1; n > 0 && *s2 != '\0'; n--) 
....................      *s++ = *s2++; 
....................   for (; n > 0; n--) 
....................      *s++ = '\0'; 
....................  
....................   return(s1); 
.................... } 
.................... /***********************************************************/ 
....................  
.................... /*concatenation functions*/ 
.................... /* standard template: char *strcat(char *s1, const char *s2) 
.................... appends s2 to s1*/ 
....................  
.................... char *strcat(char *s1, char *s2) 
.................... { 
....................    char *s; 
....................  
....................    for (s = s1; *s != '\0'; ++s); 
....................    while(*s2 != '\0') 
....................    { 
....................       *s = *s2; 
....................       ++s; 
....................       ++s2; 
....................    } 
....................  
....................    *s = '\0'; 
....................    return(s1); 
.................... } 
.................... /* standard template: char *strncat(char *s1, char *s2,size_t n) 
.................... appends not more than n characters from s2 to s1*/ 
....................  
.................... char *strncat(char *s1, char *s2, size_t n) 
.................... { 
....................    char *s; 
....................  
....................    for (s = s1; *s != '\0'; ++s); 
....................    while(*s2 != '\0' && 0<n) 
....................    { 
....................       *s = *s2; 
....................       ++s; 
....................       ++s2; 
....................       --n; 
....................    } 
....................  
....................    *s = '\0'; 
....................    return(s1); 
.................... } 
....................  
.................... /***********************************************************/ 
....................  
....................  
.................... /*comparison functions*/ 
.................... /* standard template: signed int memcmp(void *s1, void *s2). 
....................    Compares s1 & s2; returns -1 if s1<s2, 0 if s1=s2, 1 if s1>s2 */ 
....................  
.................... signed int memcmp(void * s1,char *s2,size_t n) 
.................... { 
.................... char *su1, *su2; 
.................... for(su1=s1, su2=s2; 0<n; ++su1, ++su2, --n) 
.................... { 
....................    if(*su1!=*su2) 
....................       return ((*su1<*su2)?-1:+1); 
.................... } 
.................... return 0; 
.................... } 
....................  
.................... /* standard template: int strcmp(const char *s1, const char *s2). 
....................    Compares s1 & s2; returns -1 if s1<s2, 0 if s1=s2, 1 if s1>s2 */ 
....................  
.................... signed int strcmp(char *s1, char *s2) 
.................... { 
....................    for (; *s1 == *s2; s1++, s2++) 
....................       if (*s1 == '\0') 
....................          return(0); 
....................    return((*s1 < *s2) ? -1: 1); 
.................... } 
.................... /* standard template: int strcoll(const char *s1, const char *s2). 
....................    Compares s1 & s2; returns -1 if s1<s2, 0 if s1=s2, 1 if s1>s2 */ 
....................  
.................... signed int strcoll(char *s1, char *s2) 
.................... { 
....................    for (; *s1 == *s2; s1++, s2++) 
....................       if (*s1 == '\0') 
....................          return(0); 
....................    return((*s1 < *s2) ? -1: 1); 
.................... } 
....................  
.................... /* standard template: 
....................    int strncmp(const char *s1, const char *s2, size_t n). 
....................    Compares max of n characters (not following 0) from s1 to s2; 
....................    returns same as strcmp */ 
....................  
.................... signed int strncmp(char *s1, char *s2, size_t n) 
.................... { 
....................    for (; n > 0; s1++, s2++, n--) 
....................       if (*s1 != *s2) 
....................          return((*s1 <*s2) ? -1: 1); 
....................       else if (*s1 == '\0') 
....................          return(0); 
....................    return(0); 
.................... } 
.................... /* standard template: 
....................    int strxfrm(const char *s1, const char *s2, size_t n). 
....................    transforms maximum of n characters from s2 and places them into s1*/ 
.................... size_t strxfrm(char *s1, char *s2, size_t n) 
.................... { 
....................   char *s; 
....................   int n1; 
....................   n1=n; 
....................   for (s = s1; n > 0 && *s2 != '\0'; n--) 
....................      *s++ = *s2++; 
....................   for (; n > 0; n--) 
....................      *s++ = '\0'; 
....................  
....................   return(n1); 
.................... } 
....................  
....................  
....................  
....................  
....................  
.................... /***********************************************************/ 
.................... /*Search functions*/ 
.................... /* standard template: void *memchr(const char *s, int c). 
....................    Finds first occurrence of c in n characters of s */ 
....................  
.................... char *memchr(void *s,int c,size_t n) 
.................... { 
....................    char uc; 
....................    char *su; 
....................    uc=c; 
....................    for(su=s;0<n;++su,--n) 
....................       if(*su==uc) 
....................       return su; 
....................    return NULL; 
.................... } 
....................  
.................... /* standard template: char *strchr(const char *s, int c). 
....................    Finds first occurrence of c in s */ 
....................  
.................... char *strchr(char *s, int c) 
.................... { 
....................    for (; *s != c; s++) 
....................       if (*s == '\0') 
....................          return(0); 
....................    return(s); 
.................... } 
.................... /* standard template: 
....................    size_t strcspn(const char *s1, const char *s2). 
....................    Computes length of max initial segment of s1 that 
....................    consists entirely of characters NOT from s2*/ 
....................  
.................... int *strcspn(char *s1, char *s2) 
.................... { 
....................    char *sc1, *sc2; 
....................  
....................    for (sc1 = s1; *sc1 != 0; sc1++) 
....................       for (sc2 = s2; *sc2 != 0; sc2++) 
....................          if (*sc1 == *sc2) 
....................             return(sc1 - s1); 
....................    return(sc1 - s1); 
.................... } 
.................... /* standard template: 
....................    char *strpbrk(const char *s1, const char *s2). 
....................    Locates first occurence of any character from s2 in s1; 
....................    returns s1 if s2 is empty string */ 
....................  
.................... char *strpbrk(char *s1, char *s2) 
.................... { 
....................    char *sc1, *sc2; 
....................  
....................    for (sc1 = s1; *sc1 != 0; sc1++) 
....................       for (sc2 = s2; *sc2 != 0; sc2++) 
....................          if (*sc1 == *sc2) 
....................             return(sc1); 
....................    return(0); 
.................... } 
....................  
....................  
.................... /* standard template: char *strrchr(const char *s, int c). 
....................    Finds last occurrence of c in s */ 
....................  
.................... char *strrchr(char *s, int c) 
.................... { 
....................    char *p; 
....................  
....................    for (p = 0; ; s++) 
....................    { 
....................       if (*s == c) 
....................          p = s; 
....................       if (*s == '\0') 
....................          return(p); 
....................    } 
.................... } 
.................... /* computes length of max initial segment of s1 consisting 
....................    entirely of characters from s2 */ 
....................  
.................... int *strspn(char *s1, char *s2) 
.................... { 
....................    char *sc1, *sc2; 
....................  
....................    for (sc1 = s1; *sc1 != 0; sc1++) 
....................       for (sc2 = s2; ; sc2++) 
....................     if (*sc2 == '\0') 
....................        return(sc1 - s1); 
....................          else if (*sc1 == *sc2) 
....................             break; 
....................    return(sc1 - s1); 
.................... } 
.................... /* standard template: 
....................    char *strstr(const char *s1, const char *s2); 
....................    Locates first occurence of character sequence s2 in s1; 
....................    returns 0 if s2 is empty string 
....................  
....................    Uncomment #define FASTER_BUT_MORE_ROM at the top of the 
....................    file to use the faster algorithm */ 
.................... char *strstr(char *s1, char *s2) 
.................... { 
....................    char *s, *t; 
....................  
....................    #ifdef FASTER_BUT_MORE_ROM 
....................    if (*s2 == '\0') 
....................          return(s1); 
....................    #endif 
....................  
....................    while (*s1) 
....................    { 
....................       for(s = s1, t = s2; *t && (*s == *t); ++s, ++t); 
....................  
....................       if (*t == '\0') 
....................          return s1; 
....................       ++s1; 
....................       #ifdef FASTER_BUT_MORE_ROM 
....................          while(*s1 != '\0' && *s1 != *s2) 
....................             ++s1; 
....................       #endif 
....................    } 
....................    return 0; 
.................... } 
....................  
.................... /* standard template: char *strtok(char *s1, const char *s2). 
....................  
....................    Finds next token in s1 delimited by a character from separator 
....................    string s2 (which can be different from call to call).  First call 
....................    starts at beginning of s1 searching for first character NOT 
....................    contained in s2; returns 0 if none is found. 
....................    If one is found, it is the start of first token (return value). 
....................    Function then searches from there for a character contained in s2. 
....................    If none is found, current token extends to end of s1, and subsequent 
....................    searches for a token will return 0.  If one is found, it is 
....................    overwritten by '\0', which terminates current token.  Function saves 
....................    pointer to following character from which next search will start. 
....................    Each subsequent call, with 0 as first argument, starts searching 
....................    from saved pointer */ 
....................  
.................... char *strtok(char *s1, char *s2) 
.................... { 
....................    char *beg, *end; 
....................    static char *save; 
*
180A:  BCF    03.5
180B:  CLRF   29
....................  
....................    beg = (s1)? s1: save; 
....................    beg += strspn(beg, s2); 
....................    if (*beg == '\0') 
....................    { 
....................       *save = ' '; 
....................       return(0); 
....................    } 
....................    end = strpbrk(beg, s2); 
....................    if (*end != '\0') 
....................    { 
....................       *end = '\0'; 
....................       end++; 
....................    } 
....................    save = end; 
....................    return(beg); 
.................... } 
....................  
.................... /*****************************************************************/ 
.................... /*Miscellaneous functions*/ 
.................... /* standard template 
.................... maps error number in errnum to an error message string 
.................... Returns: Pointer to string 
.................... */ 
.................... #ifdef _ERRNO 
.................... char * strerror(int errnum) 
.................... { 
.................... char s[15]; 
.................... switch( errnum) 
.................... { 
.................... case 0: 
....................    strcpy(s,"no errors"); 
....................    return s; 
.................... case EDOM : 
....................    strcpy(s,"domain error"); 
....................    return s; 
.................... case ERANGE: 
....................    strcpy(s,"range error"); 
....................    return s; 
.................... } 
.................... } 
.................... #ENDIF 
.................... /* standard template: size_t strlen(const char *s). 
....................    Computes length of s1 (preceding terminating 0) */ 
....................  
.................... int *strlen(char *s) 
.................... { 
....................    char *sc; 
....................  
....................    for (sc = s; *sc != 0; sc++); 
....................    return(sc - s); 
.................... } 
....................  
.................... /* standard template: size_t stricmp(const char *s1, const char *s2). 
....................    Compares s1 to s2 ignoring case (upper vs. lower) */ 
....................  
.................... signed int stricmp(char *s1, char *s2) 
.................... { 
....................  for(; *s1==*s2||(isalpha(*s1)&&isalpha(*s2)&&(*s1==*s2+32||*s2==*s1+32)); 
....................     s1++, s2++) 
....................     if (*s1 == '\0') 
....................        return(0); 
....................  return((*s1 < *s2) ? -1: 1); 
.................... } 
....................  
....................  
.................... /* standard template: char *strlwr(char *s). 
....................    Replaces uppercase letters by lowercase; 
....................    returns pointer to new string s */ 
....................  
.................... char *strlwr(char *s) 
.................... { 
....................    char *p; 
....................  
....................    for (p = s; *p != '\0'; p++) 
....................       if (*p >= 'A' && *p <='Z') 
....................          *p += 'a' - 'A'; 
....................    return(s); 
.................... } 
....................  
....................  
.................... /************************************************************/ 
....................  
....................  
.................... #endif 
....................  
.................... #include	<define.h> 
.................... #ifndef		__DEFINE_H_ 
.................... #define		__DEFINE_H_ 
....................  
.................... #byte	INDF		=	0x00 
.................... #byte	TIMER0 		=	0x01 
.................... #byte	PCL		=	0x02 
.................... #byte	STATUS		=	0x03 
.................... #byte	FSR		=	0x04 
.................... #byte	PORTA 		= 	0x05 
.................... #byte	PORTB 		= 	0x06 
.................... #byte	PORTC 		= 	0x07 
.................... #byte	PORTD 		= 	0x08 
.................... #byte	PORTE 		= 	0x09 
.................... #byte	PCLATH		=	0x0A 
.................... #byte	INTCON		=	0x0B 
.................... #byte	PIR1		=	0x0C 
.................... #byte	PIR2		=	0x0D 
.................... #byte	TIMER1_L	=	0x0E 
.................... #byte	TIMER1_H	=	0x0F 
.................... #byte	T1CON		=	0x10 
.................... #byte	TIMER2		=	0x11 
.................... #byte	T2CON		=	0x12 
.................... #byte	SSPBUF		=	0x13 
.................... #byte	SSPCON		=	0x14 
....................  
.................... long	CCPR1; 
....................  
.................... #byte	CCPR1		=	0x15	 
.................... #byte	CCPR1L		=	0x15 
.................... #byte	CCPR1H		=	0x16 
.................... #byte	CCP1CON		=	0x17 
.................... #byte	RCSTA		=	0x18 
.................... #byte	TXREG		=	0x19 
.................... #byte	RXREG		=	0x1A 
.................... #byte	CCPR2L		=	0x1B 
.................... #byte	CCPR2H		=	0x1C 
.................... #byte	CCP2CON		=	0x1D 
.................... #byte	ADRES		=	0x1E 
.................... #byte	ADCON0		=	0x1F 
....................  
....................  
.................... // Page 1 Registers 
.................... //INDF			=	0x80	:	duplicate	 
.................... #byte	OPTION		=	0x81 
.................... #byte	PCL		=	0x82 
.................... //STATUS		=	0x83	:	duplicate 
.................... //FSR			=	0x84	:	duplicate	 
.................... #byte	TRISA 		= 	0x85 
.................... #byte	TRISB 		= 	0x86 
.................... #byte	TRISC 		= 	0x87 
.................... #byte	TRISD 		= 	0x88 
.................... #byte	TRISE 		= 	0x89 
.................... //	PCLATH		=	0x8A	:	duplicate	 
.................... //	INTCON		=	0x8B	:	duplicate 
.................... #byte	PIE1		=	0x8C 
.................... #byte	PIE2		=	0x8D 
.................... #byte	PCON		=	0x8E 
.................... //				0x8F	:	reserved		 
.................... //				0x90	:	reserved	 
.................... //				0x91	:	reserved 
.................... #byte	PR2		=	0x92 
.................... #byte	SSPADD		=	0x93 
.................... #byte	SSPSTAT		=	0x94 
.................... //				0x95	:	reserved 
.................... //				0x96	:	reserved 
.................... //				0x97	:	reserved	 
.................... #byte	TXSTA		=	0x98	 
.................... #byte	SPBRG 		= 	0x99 
.................... //				0x9A	:	reserved 
.................... //				0x9B	:	reserved 
.................... //				0x9C	:	reserved 
.................... //				0x9D	:	reserved 
.................... //				0x9E	:	reserved 
.................... #byte	ADCON1		=	0x9F 
.................... #byte	EEDATA		= 0x10C 
.................... #byte	EEADR		= 0x10D 
.................... #byte	EEDATH		= 0x10E 
.................... #byte	EEADRH		= 0X10F 
.................... #byte	EECON1		= 0x18C 
.................... #byte	EECON2		= 0x18D 
....................  
.................... // option register configuration  
.................... #define		PORTB_PULL_UP		0x80		// enable port B pull-up	 
.................... #define		EXT_INT_RISING_EDGE	0x40		// external interrupt : rising edge	 
.................... #define		WDT_EXT_CLK		0x20		// WDT clock : external clock (port_A.4)	 
.................... #define		WDT_PS			0x40		// WDT prescaler 
.................... #define		WDT_PS0			0x00 
.................... #define		WDT_PS1			0x01 
.................... #define		WDT_PS2			0x02 
.................... #define		WDT_PS3			0x03 
.................... #define		WDT_PS4			0x04 
.................... #define		WDT_PS5			0x05 
.................... #define		WDT_PS6			0x06 
.................... #define		WDT_PS7			0x07 
....................  
.................... #define		portb_pullup_enable()			OPTION&=0x7f 
.................... #define		portb_pullup_disable()			OPTION|=0x80 
....................  
.................... // interrupt control register  
.................... #define		global_interrupt_enable()		INTCON|=0x80	// enable global interrupt 
.................... #define		global_interrupt_disable()		INTCON&=0x7f	// disable global interrupt  
....................  
.................... #define		peripheral_interrupt_enable()	INTCON|=0x40	// enable peripheral interrupt  
.................... #define		peripheral_interrupt_disable() 	INTCON&=0xbf	// disable peripheral interrupt 
....................  
.................... #define		timer0_interrupt_enable()		INTCON|=0x20	// enable timer0 interrupt		 
.................... #define		timer0_interrupt_disable()		INTCON&=0xdf	// disable timer0 interrupt  
....................  
.................... #define		external_interrupt_enable()		INTCON|=0x10	// enable external interrupt   
.................... #define		external_interrupt_disable()	INTCON&=0xef	// disable external interrupt 
....................  
.................... #define		portb_change_interrupt_enable()	INTCON|=0x08	// enable port B change interrupt 
.................... #define		portb_change_interrupt_disable()	INTCON&=0xf7	// disable port B change interrupt 
....................  
.................... #define		clear_timer0_interrupt()			INTCON&=0xfb		 
.................... #define		clear_external_interrupt_flag()		INTCON&=0xfd 
....................  
.................... #define		clear_portb_change_interrupt_flag()	INTCON&=0xfe 
....................  
.................... // after peripheral interrupt enable()  
....................  
.................... #define		PSP_interrupt_enable()				PIE1|=0x80		//  Parallel Slave Port Read/Write Interrupt Enable 
.................... #define		PSP_interrupt_disable()				PIE1&=0x7f		//  Parallel Slave Port Read/Write Interrupt Enable 
....................  
.................... #define		AD_converter_interrupt_enable()		PIE1|=0x40		//   
.................... #define		AD_converter_interrupt_disable()	PIE1&=0xbf		//   
....................  
.................... #define		receive_interrupt_enable()			PIE1|=0x20		// USART receive interrupt  
.................... #define		receive_interrupt_disable()			PIE1&=0xdf		// USART receive interrupt 
....................  
.................... #define		transmit_interrupt_enable()			PIE1|=0x10		// USART transmit interrupt  
.................... #define		transmit_interrupt_disable()		PIE1&=0xef		// USART transmit interrupt  
....................  
.................... #define		ssp_interrupt_enable()				PIE1|=0x08		// Synchronous Serial Port Interrupt 
.................... #define		ssp_interrupt_disable()				PIE1&=0xf7		// Synchronous Serial Port Interrupt 
....................  
.................... #define		ccp1_interrupt_enable()				PIE1|=0x04		// CCP1 module interrupt  
.................... #define		ccp1_interrupt_disable()			PIE1&=0xfb 
....................  
.................... #define		timer2_interrupt_enable()			PIE1|=0x02 
.................... #define		timer2_interrupt_disable()			PIE1&=0xfd 
....................  
.................... #define		timer1_interrupt_enable()			PIE1|=0x01		// enable timer1 interrupt  
.................... #define		timer1_interrupt_disable()			PIE1&=0xfe 
....................  
.................... #define		clear_PSP_interrupt_flag()			PIR1&=0x7f		//  clear parallel slave port interrupt flag 
.................... #define		clear_AD_interrupt_flag()			PIR1&=0xbf		//  clear AD converter interrupt flag 
.................... #define		clear_receive_interrupt_flag()		PIR1&=0xdf		//  clear USART receive interrupt flag 
.................... #define		clear_transmit_interrupt_flag()		PIR1&=0xef		//  clear USART receive interrupt flag 
.................... #define		clear_SSP_interrupt_flag()			PIR1&=0xf7		//  clear USART receive interrupt flag 
.................... #define		clear_CCP1_interrupt_flag()			PIR1&=0xfb		//  clear CCP1 interrupt flag 
.................... #define		clear_timer2_interrupt_flag()		PIR1&=0xfd		//  clear timer2 interrupt flag 
.................... #define		clear_timer1_interrupt_flag()		PIR1&=0xfe		//  clear timer1 interrupt flag 
....................  
.................... // serial communication interface macros  
.................... #define		transmit_enable()					TXSTA|=0x20 
.................... #define		transmit_disable()					TXSTA&=0x7f 
.................... #define		serial_port_enable()				RCSTA|=0x80 
.................... #define		serial_port_disable()				RCSTA&=0x7f	 
....................  
.................... // I/O Port 
....................  
.................... #define PORT_DATA0				PIN_D0  	// I/O 
.................... #define PORT_DATA1				PIN_D1  	// I/O 
.................... #define PORT_DARA2				PIN_D2  	// I/O 
.................... #define PORT_DATA3				PIN_D3  	// I/O 
.................... #define PORT_DATA4				PIN_D4  	// I/O 
.................... #define PORT_DATA5				PIN_D5  	// I/O 
.................... #define PORT_DATA6				PIN_D6  	// I/O 
.................... #define PORT_DATA7				PIN_D7  	// I/O 
....................  
.................... // LCD.C 
.................... #define LCD_RS					PIN_E0  	// Analog 
.................... #define LCD_CE					PIN_E1  	// OUT 
.................... #define LCD_RW					PIN_E2  	// OUT 
....................  
.................... //==================================================== 
.................... // 
.................... //  FaultCode  
.................... // 
.................... //==================================================== 
.................... #define ERR_SPI_RX			51 
.................... #define ERR_SPI_CONNECT		51 
....................  
.................... #define KEY_RUN			PIN_A0 
.................... #define KEY_STOP		PIN_A1 
.................... #define KEY_SET			PIN_B0 
.................... #define KEY_RIGHT		PIN_B1 
.................... #define KEY_SAVE		PIN_B2 
.................... #define KEY_ESC			PIN_B3 
.................... #define KEY_UP			PIN_B4 
.................... #define KEY_DOWN		PIN_B5 
....................  
.................... // 
.................... #define TEST_PIN		PIN_C2  	// #17 
....................  
.................... typedef enum {BTN_NULL,BTN_RUN,BTN_STOP,BTN_UP,BTN_DOWN,BTN_RIGHT,BTN_ESC,BTN_SET,BTN_SAVE}BUTTON ; 
....................  
.................... // lcd.c 
.................... // LCD RAM Address 
.................... #define	ROW1					0			// LCD Row1 Base Address 
.................... #define	ROW2					64			// LCD Row2 Base Address 
.................... #define	ROW3					20			// LCD Row3 Base Address 
.................... #define	ROW4					84			// LCD Row4 Base Address 
.................... #define	DDRAM					0x80		// DDRAM address 
.................... #define	CGRAM					0x40		// CGRAM address 
.................... #define	COL_LEN					20 
....................  
.................... // LCD command macros 
.................... #define	CURSE_HOME				0x02		// curse home 
.................... #define	DISPLAY_OFF				0x01		// display off 
.................... #define	DISPLAY_CURSE_BLINK_ON	0x0f		// enable display/curse/blink 
.................... #define	DISPLAY_CURSE_ON		0x0e		// enable display/curse 
.................... #define	DISPLAY_ON				0x0c		// enable display 
.................... #define	CURSOR_OFF				0x0c 
.................... #define	CURSOR_BLINK_OFF		0x0e 
.................... #define	CURSOR_BLINK			0x0f 
.................... #define	LCD_Clear()				LCD_Cmd(0x01)	// clear LCD,curse home 
....................  
.................... #define COM_TEST	0 
.................... #define TEST_MODE 		0 
.................... #define MASTER_MODE		1 
....................  
.................... #define STATE_MONITOR_MODE	0 
.................... #define STATE_EDIT_MODE		1 
.................... #define STATE_TRIP_MODE		2 
.................... #define STATE_SET_MODE		3 
.................... #define STATE_RESET_MODE	4 
.................... #define STATE_TIME_MODE		5 
.................... #define STATE_ERROR_MODE	6 
.................... #define RECORD_CLEAR_MODE	7 
.................... #define SYSTEM_INIT_MODE	8 
.................... #define CHECKSUM_MODE		9 
.................... #define STATE_POSITION_MODE	10 
.................... #define STATE_SET_MODE2		11 
....................  
.................... #endif 
....................  
.................... #include	<ctype.h> 
.................... //////////////////////////////////////////////////////////////////////////// 
.................... ////        (C) Copyright 1996,2003 Custom Computer Services            //// 
.................... //// This source code may only be used by licensed users of the CCS C   //// 
.................... //// compiler.  This source code may only be distributed to other       //// 
.................... //// licensed users of the CCS C compiler.  No other use, reproduction  //// 
.................... //// or distribution is permitted without written permission.           //// 
.................... //// Derivative programs created using this software in object code     //// 
.................... //// form are not restricted in any way.                                //// 
.................... //////////////////////////////////////////////////////////////////////////// 
....................  
.................... #ifndef _CTYPE 
.................... #define _CTYPE 
....................  
.................... #define islower(x)  isamong(x,"abcdefghijklmnopqrstuvwxyz") 
.................... #define isupper(x)  isamong(x,"ABCDEFGHIJKLMNOPQRSTUVWXYZ") 
.................... #define isalnum(x)  isamong(x,"0123456789ABCDEFGHIJKLMNOPQRSTUVWXYZabcdefghijklmnopqrstuvwxyz") 
.................... #define isalpha(x)  isamong(x,"ABCDEFGHIJKLMNOPQRSTUVWXYZabcdefghijklmnopqrstuvwxyz") 
.................... #define isdigit(x)  isamong(x,"0123456789") 
.................... #define isspace(x)  ((x)==' ') 
.................... #define isxdigit(x) isamong(x,"0123456789ABCDEFabcdef") 
.................... #define iscntrl(x)  ((x)<' ') 
.................... #define isprint(x)  ((x)>=' ') 
.................... #define isgraph(x)  ((x)>' ') 
.................... #define ispunct(x)  (((x)>' ')&&!isalnum(x)) 
....................  
.................... #endif 
....................  
....................  
....................  
.................... #include	<stddef.h> 
.................... /////////////////////////////////////////////////////////////////////////// 
.................... ////        (C) Copyright 1996,2003 Custom Computer Services           //// 
.................... //// This source code may only be used by licensed users of the CCS C  //// 
.................... //// compiler.  This source code may only be distributed to other      //// 
.................... //// licensed users of the CCS C compiler.  No other use, reproduction //// 
.................... //// or distribution is permitted without written permission.          //// 
.................... //// Derivative programs created using this software in object code    //// 
.................... //// form are not restricted in any way.                               //// 
.................... /////////////////////////////////////////////////////////////////////////// 
....................  
.................... #ifndef _STDDEF 
....................  
.................... #define _STDDEF 
....................  
.................... #if sizeof(int *)==1 
.................... #define ptrdiff_t int 
.................... #else 
.................... #define ptrdiff_t long 
.................... #endif 
....................  
.................... #define size_t int 
.................... #define wchar_t char 
.................... #define NULL 0 
....................  
.................... #define offsetof(s,f) (offsetofbit(s,f)/8) 
....................  
.................... #endif 
....................  
.................... #include 	"sci.h" 
.................... ///////////////////////////////////////////////////////////////////////// 
.................... // 
.................... //	Project Name 	: Input for EW Inverter   
.................... //	Fiele Name	 	: sci.h 
.................... // 
.................... //  Start 			: 2007.08.01 wednsday 
.................... //  Finish			:   
.................... //	Edit 			: 2008.05.21 
.................... /////////////////////////////////////////////////////////////////////////// 
.................... // 
.................... // 8Mhz  baud:19600 high speed 
.................... // 
....................  
.................... //#define RXD_STACK_LENGTH 
.................... #define Rx_Ready()		(PIR1 & 0x20) 
.................... #define Tx_Ready()		(TXSTA & 0x02) 
....................  
.................... #define SCI_RX_MSG_SIZE		30 
.................... //#define SCI_RX_BUF_LENGTH	25 
....................  
.................... #define SCI_HEAD 			2 
.................... #define SCI_END  			3 
....................  
.................... #define SCI_CMD_BYTE		1 
.................... #define SCI_ADDR0			2 
.................... #define SCI_ADDR1			3 
.................... #define SCI_ADDR2			4 
....................  
.................... #define SCI_DATA0			5 
.................... #define SCI_DATA1			6 
.................... #define SCI_DATA2			7 
.................... #define SCI_DATA3			8 
.................... #define SCI_DATA4			9 
....................  
.................... #define SCI_CMD_START		0x41	//'A' 
.................... #define SCI_CMD_STOP		0x42	//'B' 
.................... #define SCI_CMD_RESET		0x43	//'C' 
.................... #define SCI_CMD_SPEED_UP	0x44	//'D'	 
.................... #define SCI_CMD_SPEED_DOWN	0x45	//'E' 
.................... #define SCI_CMD_READ_DATA	0x46	//'F' 
.................... #define SCI_CMD_WRITE_RAM	0x47	//'G' 
.................... #define SCI_CMD_WRITE_ROM	0x48	//'H' 
.................... #define SCI_CMD_READ_ALL	0x49	//'I' 
.................... #define SCI_CMD_WRITE_ALL	0x4A	//'J' 
.................... #define SCI_CMD_CODE_MSG	0x4B	//'K' 
.................... #define SCI_CMD_WRITE_CHECK	0x4C	//'L' 
.................... #define SCI_CMD_MONITOR		0x4D	//'M' 
.................... #define SCI_CMD_TIMER		0x4E	//'N' 
.................... #define SCI_CMD_TRIP_VIEW	0x4F	//'O' 
.................... #define SCI_CMD_TX_RESET	0x50	//'P' 
.................... #define SCI_CMD_BTN_SAVE	0x51	//'Q' 
.................... #define SCI_CMD_INIT_DATA	0x52	//'R' 
....................  
.................... #define	STATE_READY				'0' 
.................... #define	STATE_RUN				'1' 
.................... #define	STATE_TRIP				'2' 
.................... #define	STATE_INIT_RUN			'3' 
.................... #define	STATE_GO_STOP			'4' 
.................... #define	STATE_WAIT_BREAK_OFF	'5' 
....................  
.................... //======================================== 
.................... // End of sci.h 
.................... //======================================== 
....................  
.................... #include 	"ewdo21.h" 
....................  
.................... #ifndef _EWDO21_H_ 
.................... #define _EWDO21_H_ 
....................  
.................... //---  
.................... #define ADDR_TRIP_VIEW_CODE	'1' 
....................  
.................... #define ADDR_TRIP_VIEW_MSG	'2' 
.................... #define ADDR_TRIP_VIEW_TIME	'3' 
.................... #define ADDR_TRIP_VIEW_DATA	'4' 
....................  
.................... #define ADDR_TRIP_VIEW_I	'5' 
.................... #define ADDR_TRIP_VIEW_VDC	'6' 
.................... #define ADDR_TRIP_VIEW_HZ	'7' 
....................  
.................... #endif 
....................  
....................  
.................... #include	"global.h" 
.................... #ifndef		__GLOBAL_VAR_ 
.................... #define		__GLOBAL_VAR_ 
....................  
.................... int machine_state; 
.................... unsigned long secWatchDog; 
.................... //int machine_stae; 
.................... int CodeID; 
.................... int Code[12]={0}; 
180C:  CLRF   2E
180D:  CLRF   2F
180E:  CLRF   30
180F:  CLRF   31
1810:  CLRF   32
1811:  CLRF   33
1812:  CLRF   34
1813:  CLRF   35
1814:  CLRF   36
1815:  CLRF   37
1816:  CLRF   38
1817:  CLRF   39
....................  
.................... char gSciTxBuf[16]; 
.................... char st[21]={0}; 
1818:  CLRF   4A
1819:  CLRF   4B
181A:  CLRF   4C
181B:  CLRF   4D
181C:  CLRF   4E
181D:  CLRF   4F
181E:  CLRF   50
181F:  CLRF   51
1820:  CLRF   52
1821:  CLRF   53
1822:  CLRF   54
1823:  CLRF   55
1824:  CLRF   56
1825:  CLRF   57
1826:  CLRF   58
1827:  CLRF   59
1828:  CLRF   5A
1829:  CLRF   5B
182A:  CLRF   5C
182B:  CLRF   5D
182C:  CLRF   5E
.................... unsigned long gulRtsCount;				// Incr Timer2 irq base Clockof system 
....................  
.................... int lcd_x_posi=0; 
182D:  CLRF   61
.................... int lcd_y_posi=1; 
182E:  MOVLW  01
182F:  MOVWF  62
.................... int disp_count=0; 
1830:  CLRF   63
....................  
.................... int sci_rx_msg_start=0; 
1831:  CLRF   64
.................... int sci_rx_msg_end=0; 
1832:  CLRF   65
.................... char sci_rx_msg_box[SCI_RX_MSG_SIZE]={0}; 
1833:  BSF    03.5
1834:  CLRF   20
1835:  CLRF   21
1836:  CLRF   22
1837:  CLRF   23
1838:  CLRF   24
1839:  CLRF   25
183A:  CLRF   26
183B:  CLRF   27
183C:  CLRF   28
183D:  CLRF   29
183E:  CLRF   2A
183F:  CLRF   2B
1840:  CLRF   2C
1841:  CLRF   2D
1842:  CLRF   2E
1843:  CLRF   2F
1844:  CLRF   30
1845:  CLRF   31
1846:  CLRF   32
1847:  CLRF   33
1848:  CLRF   34
1849:  CLRF   35
184A:  CLRF   36
184B:  CLRF   37
184C:  CLRF   38
184D:  CLRF   39
184E:  CLRF   3A
184F:  CLRF   3B
1850:  CLRF   3C
1851:  CLRF   3D
.................... char Trip_Message[21] = {0}; 
1852:  CLRF   3E
1853:  CLRF   3F
1854:  CLRF   40
1855:  CLRF   41
1856:  CLRF   42
1857:  CLRF   43
1858:  CLRF   44
1859:  CLRF   45
185A:  CLRF   46
185B:  CLRF   47
185C:  CLRF   48
185D:  CLRF   49
185E:  CLRF   4A
185F:  CLRF   4B
1860:  CLRF   4C
1861:  CLRF   4D
1862:  CLRF   4E
1863:  CLRF   4F
1864:  CLRF   50
1865:  CLRF   51
1866:  CLRF   52
....................  
.................... char Flag_Btn = 1;		// Trip Page Flag 
1867:  BCF    03.5
1868:  MOVWF  66
.................... char Flag_Set = 1;		// Select Control Flag for Set button 
1869:  MOVWF  67
.................... char Flag_Start = 0;	// Text Output Toggle Flag 
186A:  CLRF   68
.................... char Flag_Page = 1;		// Menu Page 
186B:  MOVWF  69
.................... char Flag_Time = 0;		//  
186C:  CLRF   6A
.................... char Trip_Header[]="trp"; 
186D:  MOVLW  74
186E:  MOVWF  6B
186F:  MOVLW  72
1870:  MOVWF  6C
1871:  MOVLW  70
1872:  MOVWF  6D
1873:  CLRF   6E
.................... char Trip_Error = 0; 
1874:  CLRF   6F
.................... char Error_y_posi = 0; 
1875:  CLRF   71
.................... char Error_x_posi = 0; 
1876:  CLRF   72
.................... char Time_Count = 2; 
1877:  MOVLW  02
1878:  MOVWF  73
.................... signed char Time_Set_Number = 0; 
1879:  CLRF   74
.................... //char Header_Count = 0; 
.................... #endif 
....................  
.................... #include	"extern.h" 
.................... #ifndef		__EXTERN_H_ 
.................... #define		__EXTERN_H_ 
....................  
.................... extern int disp_count; 
.................... extern unsigned long secWatchDog; 
.................... extern char gSciTxBuf[16]; 
.................... extern char st[21]; 
.................... //extern int gFaultCode;				// Fault 
.................... extern unsigned long gulRtsCount;				// Incr Timer2 irq base Clockof system 
.................... //extern MACHINE_STATE gMachineState; 
.................... extern int lcd_x_posi; 
.................... extern int lcd_y_posi; 
....................  
.................... #endif 
....................  
.................... #include	"Module.h" 
.................... ///////////////////////////////////////////////////////////////////////// 
.................... // 
.................... //	Project Name 	: Input for EW Inverter   
.................... //	Fiele Name	 	: module.h 
.................... // 
.................... //  Start 			: 2007.08.01 wednsday 
.................... //  Finish			:   
.................... // 
.................... /////////////////////////////////////////////////////////////////////////// 
.................... // 
.................... #ifndef		__MODULE_FILES_ 
.................... #define		__MODULE_FILES_ 
....................  
.................... // SUB.C 
.................... #SEPARATE 
.................... void Nop(); 
.................... #SEPARATE 
.................... char WriteEeprom(char addr,char data); 
.................... #SEPARATE 
.................... char ReadEeprom(char addr ); 
.................... #SEPARATE 
.................... unsigned long ulGetNowCount_msec(); 
.................... #SEPARATE 
.................... unsigned long ulGetDelaymSec(long Start); 
.................... #SEPARATE 
.................... void delay_msec( unsigned long); 
....................  
.................... #SEPARATE 
.................... void ErrorProc(int ErrorCode); 
....................  
.................... // KeyProc.c 
.................... #SEPARATE 
.................... int MonitorProc(); 
.................... #SEPARATE 
.................... void RxMonitData(); 
....................  
.................... #SEPARATE 
.................... int MainMenuProc(); 
.................... #SEPARATE 
.................... void EditCodeDataProc(); 
....................  
.................... #SEPARATE 
.................... void TripCodeDataProc(); 
....................  
.................... #SEPARATE 
.................... void ReadRealTimeData(); 
....................  
.................... //LCD.c  
.................... #SEPARATE 
.................... void Busy(); 
.................... #SEPARATE 
.................... void LCD_Cmd(int cmd); 
.................... #SEPARATE 
.................... void LCD_Initialization(); 
.................... #SEPARATE 
.................... void LCD_AddrSet(int addr); 
.................... #SEPARATE 
.................... void DisplayChar(int row,int offset,char data); 
.................... #SEPARATE 
.................... void Cursor(int row,int offset,unsigned CursorCmd); 
.................... #SEPARATE 
.................... void PrintLCD(int row,int offset,char *string); 
....................  
....................  
.................... //sci.c 
.................... #SEPARATE 
.................... void SerialPortSetup(); 
.................... #SEPARATE 
.................... int SciSend(char *SciTx); 
.................... #SEPARATE 
.................... void SendChar(char xmit_data); 
.................... #SEPARATE 
.................... void SendSciString(char *string); 
....................  
.................... // AutoTunning.c 
.................... #SEPARATE 
.................... int AutoTunningProc(); 
....................  
....................  
.................... //--- TripView.c 
.................... #SEPARATE 
.................... int TripViewProc(); 
.................... #SEPARATE 
.................... void TripViewMsgTimeData(); 
.................... #SEPARATE 
.................... void TripViewI_V_HZ(); 
....................  
.................... #endif 
....................  
.................... // End of file 
....................  
....................  
.................... #include	"LCD.C" 
.................... ///////////////////////////////////////////////////////////////////////// 
.................... // 
.................... //	Project Name 		: LCD INPUT for Montrol Inverter 
.................... //	Fiele Name		 	: LCD.c 
.................... // 	Discription			: ICD2   
.................... //    		: 2004.03.31 
.................... //    		: 2004.03.31 
.................... // 
.................... // LCD         
.................... /////////////////////////////////////////////////////////////////////////// 
.................... // why redefine this  in spite of defined in 16F877A.c    
....................  
.................... //#use delay(clock=8000000)		// debug 
....................  
.................... #SEPARATE 
.................... void Busy() 
.................... { 
.................... 	int	LCD_Busy; 
....................  
.................... 	delay_us(10);	// debug 
*
0624:  MOVLW  06
0625:  MOVWF  77
0626:  DECFSZ 77,F
0627:  GOTO   626
0628:  NOP
.................... 	do 
.................... 	{ 
.................... 		output_d(0); 
0629:  BSF    03.5
062A:  CLRF   08
062B:  BCF    03.5
062C:  CLRF   08
.................... 		output_high(LCD_RW); 
062D:  BSF    03.5
062E:  BCF    09.2
062F:  BCF    03.5
0630:  BSF    09.2
.................... 		output_high(LCD_CE); 
0631:  BSF    03.5
0632:  BCF    09.1
0633:  BCF    03.5
0634:  BSF    09.1
.................... 		LCD_Busy = (input_d()) & 0x80;	  	// busy flag mask : bit7 
0635:  MOVLW  FF
0636:  BSF    03.5
0637:  MOVWF  08
0638:  BCF    03.5
0639:  MOVF   08,W
063A:  ANDLW  80
063B:  BSF    03.5
063C:  MOVWF  64
.................... 		output_low(LCD_CE); 
063D:  BCF    09.1
063E:  BCF    03.5
063F:  BCF    09.1
.................... 	} while (LCD_Busy); 
0640:  BSF    03.5
0641:  MOVF   64,F
0642:  BTFSS  03.2
0643:  GOTO   62A
.................... 	delay_ms(2);   // debug 
0644:  MOVLW  02
0645:  MOVWF  65
0646:  BCF    03.5
0647:  CALL   587
.................... 	output_low(LCD_CE); 
0648:  BSF    03.5
0649:  BCF    09.1
064A:  BCF    03.5
064B:  BCF    09.1
.................... 	output_low(LCD_RS); 
064C:  BSF    03.5
064D:  BCF    09.0
064E:  BCF    03.5
064F:  BCF    09.0
.................... 	output_low(LCD_RW); 	 
0650:  BSF    03.5
0651:  BCF    09.2
0652:  BCF    03.5
0653:  BCF    09.2
.................... } 
0654:  RETLW  00
....................  
.................... #SEPARATE 
.................... void LCD_Cmd(int cmd) 
.................... { 
.................... 	output_d(cmd); 
*
059C:  BSF    03.5
059D:  CLRF   08
059E:  MOVF   5F,W
059F:  BCF    03.5
05A0:  MOVWF  08
.................... 	output_low(LCD_RS); 
05A1:  BSF    03.5
05A2:  BCF    09.0
05A3:  BCF    03.5
05A4:  BCF    09.0
.................... 	output_low(LCD_RW); 
05A5:  BSF    03.5
05A6:  BCF    09.2
05A7:  BCF    03.5
05A8:  BCF    09.2
.................... 	output_high(LCD_CE); 
05A9:  BSF    03.5
05AA:  BCF    09.1
05AB:  BCF    03.5
05AC:  BSF    09.1
.................... 	delay_ms(2);						    
05AD:  MOVLW  02
05AE:  BSF    03.5
05AF:  MOVWF  65
05B0:  BCF    03.5
05B1:  CALL   587
.................... 	output_low(LCD_CE); 
05B2:  BSF    03.5
05B3:  BCF    09.1
05B4:  BCF    03.5
05B5:  BCF    09.1
.................... 	delay_ms(2);						    
05B6:  MOVLW  02
05B7:  BSF    03.5
05B8:  MOVWF  65
05B9:  BCF    03.5
05BA:  CALL   587
.................... 	output_high(LCD_CE); 
05BB:  BSF    03.5
05BC:  BCF    09.1
05BD:  BCF    03.5
05BE:  BSF    09.1
.................... } 
05BF:  RETLW  00
....................  
.................... // LCD initialization after power on 
....................  
.................... #SEPARATE 
.................... void LCD_Initialization() 
.................... { 
.................... 	output_low(LCD_CE); 
05C0:  BSF    03.5
05C1:  BCF    09.1
05C2:  BCF    03.5
05C3:  BCF    09.1
.................... 	output_low(LCD_RS); 
05C4:  BSF    03.5
05C5:  BCF    09.0
05C6:  BCF    03.5
05C7:  BCF    09.0
.................... 	output_low(LCD_RW); 
05C8:  BSF    03.5
05C9:  BCF    09.2
05CA:  BCF    03.5
05CB:  BCF    09.2
....................  
.................... 	output_d(0); 
05CC:  BSF    03.5
05CD:  CLRF   08
05CE:  BCF    03.5
05CF:  CLRF   08
.................... 	output_d(0x38); 
05D0:  BSF    03.5
05D1:  CLRF   08
05D2:  MOVLW  38
05D3:  BCF    03.5
05D4:  MOVWF  08
....................  
.................... 	output_high(LCD_CE); 
05D5:  BSF    03.5
05D6:  BCF    09.1
05D7:  BCF    03.5
05D8:  BSF    09.1
.................... 	Nop(); 
05D9:  CALL   59A
.................... 	Nop(); 
05DA:  CALL   59A
.................... 	output_low(LCD_CE); 
05DB:  BSF    03.5
05DC:  BCF    09.1
05DD:  BCF    03.5
05DE:  BCF    09.1
....................  
.................... 	delay_ms(20); 
05DF:  MOVLW  14
05E0:  BSF    03.5
05E1:  MOVWF  65
05E2:  BCF    03.5
05E3:  CALL   587
....................  
.................... 	output_d(0x38); 
05E4:  BSF    03.5
05E5:  CLRF   08
05E6:  MOVLW  38
05E7:  BCF    03.5
05E8:  MOVWF  08
....................  
.................... 	output_high(LCD_CE); 
05E9:  BSF    03.5
05EA:  BCF    09.1
05EB:  BCF    03.5
05EC:  BSF    09.1
.................... 	Nop(); 
05ED:  CALL   59A
.................... 	Nop(); 
05EE:  CALL   59A
.................... 	output_low(LCD_CE); 
05EF:  BSF    03.5
05F0:  BCF    09.1
05F1:  BCF    03.5
05F2:  BCF    09.1
....................  
.................... 	delay_ms(5); 
05F3:  MOVLW  05
05F4:  BSF    03.5
05F5:  MOVWF  65
05F6:  BCF    03.5
05F7:  CALL   587
....................  
.................... 	LCD_Cmd(DISPLAY_ON);		// display on, curse off, blink off 
05F8:  MOVLW  0C
05F9:  BSF    03.5
05FA:  MOVWF  5F
05FB:  BCF    03.5
05FC:  CALL   59C
.................... 	LCD_Cmd(0x01);				// display on, curse off, blink off 
05FD:  MOVLW  01
05FE:  BSF    03.5
05FF:  MOVWF  5F
0600:  BCF    03.5
0601:  CALL   59C
.................... 	LCD_Cmd(0x06);				// LCD clear, curse home 
0602:  MOVLW  06
0603:  BSF    03.5
0604:  MOVWF  5F
0605:  BCF    03.5
0606:  CALL   59C
.................... 	LCD_Cmd(0x80);				// initial DDRAM address 
0607:  MOVLW  80
0608:  BSF    03.5
0609:  MOVWF  5F
060A:  BCF    03.5
060B:  CALL   59C
.................... 	LCD_Cmd(0x01);				// LCD clear,curse home 
060C:  MOVLW  01
060D:  BSF    03.5
060E:  MOVWF  5F
060F:  BCF    03.5
0610:  CALL   59C
.................... } 
0611:  RETLW  00
....................  
.................... // LCD   
.................... #SEPARATE 
.................... void LCD_AddrSet(int addr) 
.................... { 
.................... 	Busy(); 
*
0655:  CALL   624
.................... 	output_d(addr+DDRAM); 
0656:  MOVLW  80
0657:  BSF    03.5
0658:  ADDWF  63,W
0659:  MOVWF  64
065A:  CLRF   08
065B:  MOVF   64,W
065C:  BCF    03.5
065D:  MOVWF  08
.................... 	output_high(LCD_CE); 
065E:  BSF    03.5
065F:  BCF    09.1
0660:  BCF    03.5
0661:  BSF    09.1
.................... 	output_low(LCD_CE); 
0662:  BSF    03.5
0663:  BCF    09.1
0664:  BCF    03.5
0665:  BCF    09.1
.................... } 
0666:  RETLW  00
....................  
.................... // LCD   
.................... #SEPARATE 
.................... void DisplayChar(int row,int offset,char data) 
.................... { 
.................... 	int	ROW_Addr; 
.................... 	switch (row) 
.................... 	{ 
0667:  BSF    03.5
0668:  MOVF   5E,W
0669:  ADDLW  FC
066A:  BTFSC  03.0
066B:  GOTO   67F
066C:  ADDLW  04
066D:  BCF    03.5
066E:  GOTO   6A8
.................... 		case	0	:	ROW_Addr=ROW1;	break; 
066F:  BSF    03.5
0670:  CLRF   61
0671:  GOTO   67F
.................... 		case	1	:	ROW_Addr=ROW2;	break; 
0672:  MOVLW  40
0673:  BSF    03.5
0674:  MOVWF  61
0675:  GOTO   67F
.................... 		case	2	:	ROW_Addr=ROW3;	break; 
0676:  MOVLW  14
0677:  BSF    03.5
0678:  MOVWF  61
0679:  GOTO   67F
.................... 		case	3	:	ROW_Addr=ROW4;	break; 
067A:  MOVLW  54
067B:  BSF    03.5
067C:  MOVWF  61
067D:  GOTO   67F
067E:  BSF    03.5
.................... 	} 
.................... 	output_low(LCD_CE); 
067F:  BCF    09.1
0680:  BCF    03.5
0681:  BCF    09.1
.................... 	output_low(LCD_RS); 
0682:  BSF    03.5
0683:  BCF    09.0
0684:  BCF    03.5
0685:  BCF    09.0
.................... 	output_low(LCD_RW); 
0686:  BSF    03.5
0687:  BCF    09.2
0688:  BCF    03.5
0689:  BCF    09.2
....................  
.................... 	LCD_AddrSet(ROW_Addr+offset); 
068A:  BSF    03.5
068B:  MOVF   5F,W
068C:  ADDWF  61,W
068D:  MOVWF  62
068E:  MOVWF  63
068F:  BCF    03.5
0690:  CALL   655
.................... 	Busy(); 
0691:  CALL   624
.................... 	output_d(data); 
0692:  BSF    03.5
0693:  CLRF   08
0694:  MOVF   60,W
0695:  BCF    03.5
0696:  MOVWF  08
.................... 	output_high(LCD_RS); 
0697:  BSF    03.5
0698:  BCF    09.0
0699:  BCF    03.5
069A:  BSF    09.0
.................... 	output_high(LCD_CE); 
069B:  BSF    03.5
069C:  BCF    09.1
069D:  BCF    03.5
069E:  BSF    09.1
.................... 	output_low(LCD_CE); 
069F:  BSF    03.5
06A0:  BCF    09.1
06A1:  BCF    03.5
06A2:  BCF    09.1
.................... 	output_low(LCD_RS); 
06A3:  BSF    03.5
06A4:  BCF    09.0
06A5:  BCF    03.5
06A6:  BCF    09.0
.................... } 
06A7:  RETLW  00
....................  
.................... #SEPARATE 
.................... void Cursor(int row,int offset,unsigned CursorCmd) 
.................... { 
.................... 	int	Addr; 
.................... 	switch (row) 
.................... 	{ 
*
082F:  BSF    03.5
0830:  MOVF   5B,W
0831:  ADDLW  FC
0832:  BTFSC  03.0
0833:  GOTO   047
0834:  ADDLW  04
0835:  BCF    03.5
0836:  GOTO   057
.................... 		case	0	:	Addr=ROW1;	break; 
0837:  BSF    03.5
0838:  CLRF   5E
0839:  GOTO   047
.................... 		case	1	:	Addr=ROW2;	break; 
083A:  MOVLW  40
083B:  BSF    03.5
083C:  MOVWF  5E
083D:  GOTO   047
.................... 		case	2	:	Addr=ROW3;	break; 
083E:  MOVLW  14
083F:  BSF    03.5
0840:  MOVWF  5E
0841:  GOTO   047
.................... 		case	3	:	Addr=ROW4;	break; 
0842:  MOVLW  54
0843:  BSF    03.5
0844:  MOVWF  5E
0845:  GOTO   047
0846:  BSF    03.5
.................... 	} 
.................... 	LCD_AddrSet(Addr+offset); 
0847:  MOVF   5C,W
0848:  ADDWF  5E,W
0849:  MOVWF  5F
084A:  MOVWF  63
084B:  BCF    0A.3
084C:  BCF    03.5
084D:  CALL   655
084E:  BSF    0A.3
.................... 	LCD_Cmd(CursorCmd); 
084F:  BSF    03.5
0850:  MOVF   5D,W
0851:  MOVWF  5F
0852:  BCF    0A.3
0853:  BCF    03.5
0854:  CALL   59C
0855:  BSF    0A.3
.................... } 
0856:  RETLW  00
....................  
.................... #SEPARATE 
.................... void PrintLCD(int row,int offset,char *string) 
.................... { 
.................... 	while (*string && ( offset <  20)){ 
*
06B0:  BSF    03.5
06B1:  MOVF   5B,W
06B2:  MOVWF  04
06B3:  MOVF   00,F
06B4:  BTFSC  03.2
06B5:  GOTO   6CC
06B6:  MOVF   5A,W
06B7:  SUBLW  13
06B8:  BTFSS  03.0
06B9:  GOTO   6CC
.................... 		DisplayChar(row,offset++,*string++); 
06BA:  MOVF   5A,W
06BB:  INCF   5A,F
06BC:  MOVWF  5C
06BD:  MOVF   5B,W
06BE:  INCF   5B,F
06BF:  MOVWF  04
06C0:  MOVF   00,W
06C1:  MOVWF  5D
06C2:  MOVF   59,W
06C3:  MOVWF  5E
06C4:  MOVF   5C,W
06C5:  MOVWF  5F
06C6:  MOVF   5D,W
06C7:  MOVWF  60
06C8:  BCF    03.5
06C9:  CALL   667
.................... 	} 
06CA:  GOTO   6B0
06CB:  BSF    03.5
.................... } 
06CC:  BCF    03.5
06CD:  RETLW  00
....................  
....................  
.................... #include 	"sci.c" 
.................... ///////////////////////////////////////////////////////////////////////// 
.................... // 
.................... //	Project Name 	: Input for EW Inverter   
.................... //	Fiele Name	 	: sci.c 
.................... /////////////////////////////////////////////////////////////////////////// 
.................... // 
.................... // 8Mhz  baud:38400 
.................... // 
.................... #INT_RDA 
.................... void SerialDataReceiveInterrupt( ) 
.................... { 
.................... 	static unsigned long msec_count=0; 
*
187A:  CLRF   75
187B:  CLRF   76
.................... //	static int rxd_count=0; 
....................  
.................... 	if( ulGetDelaymSec( msec_count) > 200 ){  
*
053B:  MOVF   76,W
053C:  BSF    03.5
053D:  MOVWF  67
053E:  MOVF   75,W
053F:  MOVWF  66
0540:  BCF    03.5
0541:  CALL   4FB
0542:  MOVF   79,W
0543:  BSF    03.5
0544:  MOVWF  67
0545:  MOVF   78,W
0546:  MOVWF  66
0547:  MOVF   67,F
0548:  BTFSS  03.2
0549:  GOTO   54E
054A:  MOVF   66,W
054B:  SUBLW  C8
054C:  BTFSC  03.0
054D:  GOTO   553
.................... 		sci_rx_msg_start = sci_rx_msg_end = 0; 
054E:  BCF    03.5
054F:  CLRF   65
0550:  MOVF   65,W
0551:  MOVWF  64
0552:  BSF    03.5
.................... 	} 
....................  
.................... 	msec_count = ulGetNowCount_msec();	 
0553:  BCF    03.5
0554:  CALL   536
0555:  MOVF   79,W
0556:  MOVWF  76
0557:  MOVF   78,W
0558:  MOVWF  75
....................  
.................... 	sci_rx_msg_box[sci_rx_msg_end ] = RXREG; 
0559:  MOVLW  A0
055A:  ADDWF  65,W
055B:  MOVWF  04
055C:  MOVF   1A,W
055D:  MOVWF  00
....................  
.................... /* 
.................... 	if( sci_rx_msg_box[sci_rx_msg_end ] < 32 || sci_rx_msg_box[sci_rx_msg_end ] > 176){ 
.................... 		sci_rx_msg_box[sci_rx_msg_end ] = ' '; 
.................... 	//	sci_rx_msg_end--; 
.................... 	} 
.................... */ 
.................... 	sci_rx_msg_end++;	 
055E:  INCF   65,F
.................... 	if( sci_rx_msg_end >= SCI_RX_MSG_SIZE ) sci_rx_msg_end = 0; 
055F:  MOVF   65,W
0560:  SUBLW  1D
0561:  BTFSS  03.0
0562:  CLRF   65
.................... 	if( sci_rx_msg_start == sci_rx_msg_end ) sci_rx_msg_start ++;  
0563:  MOVF   65,W
0564:  SUBWF  64,W
0565:  BTFSC  03.2
0566:  INCF   64,F
.................... 	clear_receive_interrupt_flag(); 
0567:  BCF    0C.5
.................... } 
....................  
0568:  BCF    0C.5
0569:  BCF    0A.3
056A:  BCF    0A.4
056B:  GOTO   025
.................... void sci_rx_msg_LCD_print_proc() 
.................... { 
.................... 	char msg; 
.................... 	char tCnt; 
.................... //	int count; 
....................  
.................... 	if( bit_test(RCSTA,1)){ // over_run error 
.................... 		bit_set(RCSTA,4); 
.................... 		return; 
.................... 	} 
....................  
.................... 	if( bit_test(RCSTA,2)){ // framing error 
.................... 		msg = RXREG; return; 
.................... 	} 
.................... 	if(machine_state == STATE_MONITOR_MODE && Flag_Btn == 2) 
.................... 	{ 
.................... 		strcpy(st, "                    "); 
.................... 		PrintLCD(1,0,st); 
.................... 		Flag_Btn = 1; 
.................... 	} 
.................... 	if(Trip_error == 3 && machine_state == STATE_MONITOR_MODE)	//   TRIP  
.................... 	{ 
.................... 		PrintLCD(1,0,Trip_Message); 
.................... 	//	Trip_error = 0; 
.................... 	} 
....................  
.................... 	if(sci_rx_msg_box[1] == '-' && sci_rx_msg_box[2] == 'C' 
.................... 	&& sci_rx_msg_box[3] == 'h') 
.................... 	{ 
.................... 		Lcd_x_posi = 0, Lcd_y_posi = 0; 
.................... 	} 
....................  
.................... 	if(sci_rx_msg_box[1] == 'B' && sci_rx_msg_box[2] == 'R' 
.................... 	&& sci_rx_msg_box[3] == 'E') 
.................... 	{ 
.................... 		machine_state = CHECKSUM_MODE; 
.................... 		Flag_Page = 3; 
.................... 		Lcd_Clear(); 
.................... 		return; 
.................... 	} 
.................... 	if(sci_rx_msg_box[1] == 'I' && sci_rx_msg_box[2] == 'R' 
.................... 	&& sci_rx_msg_box[3] == 'E') 
.................... 	{ 
.................... 		machine_state = CHECKSUM_MODE; 
.................... 		Flag_Page = 4; 
.................... 		Lcd_Clear(); 
.................... 		return; 
.................... 	} 
....................  
.................... 	// TRIP ERROR   
.................... 	if(sci_rx_msg_box[1] == 'T') 
.................... 	{ 
.................... 		Trip_Header[0] = sci_rx_msg_box[1]; 
.................... 		Trip_Header[1] = sci_rx_msg_box[2]; 
.................... 		Trip_Header[2] = sci_rx_msg_box[3]; 
.................... 	} 
.................... 	if(Trip_Header[0] == 'T' && Trip_Header[1] == 'R'	// TRIP ERROR    
.................... 	&& Trip_Header[2] == 'P') 
.................... 	{ 
.................... 		Trip_Header[0]=' ';								// TRIP   
.................... 		Trip_Header[1]=' '; 
.................... 		Trip_Header[2]=' '; 
.................... 		lcd_x_posi = 0; 
.................... 		lcd_y_posi = 0; 
.................... 		Error_x_posi = 0; 
.................... 		Error_y_posi = 0; 
.................... 		Trip_Error = 1; 
.................... //		machine_state = STATE_ERROR_MODE;				// TRIP ERROR MODE 
.................... 		strcpy(Trip_Message, "                    "); 
.................... 		Lcd_Clear(); 
.................... 		return; 
.................... 	} 
....................  
.................... 	if(Flag_Time == 1) 
.................... 	{ 
.................... 		for(tCnt = 0; tCnt < 20; tCnt++) 
.................... 		{ 
.................... 			if(tCnt != 10 && tCnt != 11) 
.................... 				st[tCnt] = sci_rx_msg_box[tCnt + 1]; 
.................... 		} 
.................... 		Time_Set_Number = sci_rx_msg_box[3] - '0'; 
....................  
.................... 	//	Lcd_Clear(); 
.................... 		PrintLCD(2,0,st); 
.................... 		Delay_ms(50); 
.................... 	//	PrintLCD(0,0,sci_rx_msg_box+1); 
.................... 		Flag_Time = 2; 
.................... 	//	return; 
.................... 	} 
....................  
.................... //	count = 0; 
.................... /* 
.................... 		if(count > 20){				   
.................... 			sci_rx_msg_start = sci_rx_msg_end = 0; 
.................... 			break; 
.................... 		} 
.................... */ 
....................  
.................... //	while( sci_rx_msg_start != sci_rx_msg_end && Flag_Time != 2 && count <= 39 ) 
.................... 	while( sci_rx_msg_start != sci_rx_msg_end && Flag_Time != 2 ) 
.................... 	{ 
.................... 		msg = sci_rx_msg_box[sci_rx_msg_start]; 
.................... 	 
.................... 		if( sci_rx_msg_start >= SCI_RX_MSG_SIZE ) sci_rx_msg_start = 0; 
.................... 		 
.................... 		if(Trip_Error == 0 || Trip_Error == 3) 
.................... 			DisplayChar(lcd_y_posi,lcd_x_posi, msg ); //   
....................  
.................... 		if( lcd_x_posi >= 19 ){ 
.................... 			lcd_x_posi = 0;  
.................... 			if( lcd_y_posi >= 3)lcd_y_posi = 1; 
.................... 			else 				lcd_y_posi ++; 
.................... 		} 
.................... 		else lcd_x_posi ++; 
.................... 		 
.................... 		if(Trip_Error == 1 && sci_rx_msg_start != 0)			// Trip (EEPROM DATA LOAD) , Trip Error  
.................... 		{ 
.................... 			if(msg < 32 ){nop();} 
.................... 			else if(sci_rx_msg_start >16 && Error_y_posi == 0)	// Error 16   
.................... 				return; 
.................... 			else{ 
.................... 				if(Error_y_posi == 0){ 
.................... 					if(Error_x_posi > 5 && msg == '2'){ 
.................... 						Error_x_posi = 0; Error_y_posi++; 
.................... 					} 
.................... 				} 
.................... 				if(Error_y_posi < 4 && Error_x_posi < 20 && sci_rx_msg_start != 0) 
.................... 					DisplayChar(Error_y_posi,Error_x_posi, msg ); 
.................... 				if(Error_y_posi == 0 && Error_x_posi > 3 && machine_state != STATE_TRIP_MODE) 
.................... 					Trip_Message[Error_x_posi - 4] = msg;	// TRIP   
.................... 						 
.................... 				if(Error_x_posi >= 19){ 
.................... 					Error_x_posi = 0; 
.................... 					if( Error_y_posi >= 4)	Error_y_posi = 0; 
.................... 					else					Error_y_posi ++; 
.................... 				} 
.................... 				else Error_x_posi++; 
.................... 			} 
.................... 		} 
.................... 	} 
.................... } 
....................  
.................... int getSciMsg(char * str) 
.................... { 
.................... 	int count = 0; 
*
0B21:  BSF    03.5
0B22:  CLRF   5A
....................  
.................... 	while( sci_rx_msg_start != sci_rx_msg_end && count < 20 ) 
.................... 	{		 
0B23:  BCF    03.5
0B24:  MOVF   65,W
0B25:  SUBWF  64,W
0B26:  BTFSC  03.2
0B27:  GOTO   347
0B28:  BSF    03.5
0B29:  MOVF   5A,W
0B2A:  SUBLW  13
0B2B:  BTFSC  03.0
0B2C:  GOTO   32F
0B2D:  BCF    03.5
0B2E:  GOTO   347
.................... 		*(str ++) = sci_rx_msg_box[sci_rx_msg_start ++ ]; 
0B2F:  MOVF   59,W
0B30:  INCF   59,F
0B31:  MOVWF  5B
0B32:  BCF    03.5
0B33:  MOVF   64,W
0B34:  INCF   64,F
0B35:  ADDLW  A0
0B36:  MOVWF  04
0B37:  MOVF   00,W
0B38:  BSF    03.5
0B39:  MOVWF  5D
0B3A:  MOVF   5B,W
0B3B:  MOVWF  04
0B3C:  MOVF   5D,W
0B3D:  MOVWF  00
.................... 		if( sci_rx_msg_start >= SCI_RX_MSG_SIZE ) sci_rx_msg_start = 0;		 
0B3E:  BCF    03.5
0B3F:  MOVF   64,W
0B40:  SUBLW  1D
0B41:  BTFSS  03.0
0B42:  CLRF   64
.................... 		count ++; 
0B43:  BSF    03.5
0B44:  INCF   5A,F
.................... 	} 
0B45:  GOTO   323
0B46:  BCF    03.5
.................... 	*str = 0; 
0B47:  BSF    03.5
0B48:  MOVF   59,W
0B49:  MOVWF  04
0B4A:  CLRF   00
.................... 	return count; 
0B4B:  MOVF   5A,W
0B4C:  MOVWF  78
.................... } 
0B4D:  BCF    03.5
0B4E:  RETLW  00
....................  
.................... #SEPARATE 
.................... void SerialPortSetup() 
.................... { 
.................... 	//   
.................... 	TXSTA=0; 
*
0612:  BSF    03.5
0613:  CLRF   18
.................... 	RCSTA=0;	 
0614:  BCF    03.5
0615:  CLRF   18
.................... 	 
.................... 	// port  port_C.7=RX --> input, port_C.6=TX --> output 
.................... 	TRISC=0b10010000;	// debug 
0616:  MOVLW  90
0617:  BSF    03.5
0618:  MOVWF  07
....................  
.................... 	SPBRG = 12;//SPBRG=12;			// 38400 
0619:  MOVLW  0C
061A:  MOVWF  19
.................... 	 
.................... 	TXSTA=0b00000100;		// TX : disable,8bit data, Asynchronous mode, 16x mode 
061B:  MOVLW  04
061C:  MOVWF  18
.................... 	// serial_port_enable(); 
.................... 	RCSTA=0b10011000;//RCSTA=0b10010000;		// RX : disable, clear error 
061D:  MOVLW  98
061E:  BCF    03.5
061F:  MOVWF  18
.................... 	transmit_enable(); 
0620:  BSF    03.5
0621:  BSF    18.5
.................... } 
0622:  BCF    03.5
0623:  RETLW  00
....................  
.................... #SEPARATE 
.................... void SendChar(char xmit_data) 
.................... { 
.................... 	unsigned long msec_count=0; 
*
0A9E:  BSF    03.5
0A9F:  CLRF   5D
0AA0:  CLRF   5E
.................... 	unsigned long start_count; 
....................  
.................... 	start_count = ulGetNowCount_msec(); 
0AA1:  BCF    0A.3
0AA2:  BCF    03.5
0AA3:  CALL   536
0AA4:  BSF    0A.3
0AA5:  MOVF   79,W
0AA6:  BSF    03.5
0AA7:  MOVWF  60
0AA8:  MOVF   78,W
0AA9:  MOVWF  5F
....................  	while ((!TX_Ready()) && (msec_count < 2 )){ 		// wait untill transmit buffer is empty 
0AAA:  BTFSC  18.1
0AAB:  GOTO   2D1
0AAC:  MOVF   5E,F
0AAD:  BTFSS  03.2
0AAE:  GOTO   2D1
0AAF:  MOVF   5D,W
0AB0:  SUBLW  01
0AB1:  BTFSS  03.0
0AB2:  GOTO   2D1
0AB3:  BCF    03.5
0AB4:  CLRF   28
0AB5:  BTFSC  0B.7
0AB6:  BSF    28.7
0AB7:  BCF    0B.7
.................... 		 msec_count = ulGetDelaymSec( start_count); 
0AB8:  BSF    03.5
0AB9:  MOVF   60,W
0ABA:  MOVWF  67
0ABB:  MOVF   5F,W
0ABC:  MOVWF  66
0ABD:  BCF    0A.3
0ABE:  BCF    03.5
0ABF:  CALL   4FB
0AC0:  BSF    0A.3
0AC1:  BTFSC  28.7
0AC2:  BSF    0B.7
0AC3:  MOVF   79,W
0AC4:  BSF    03.5
0AC5:  MOVWF  5E
0AC6:  MOVF   78,W
0AC7:  MOVWF  5D
.................... 		Nop(); 
0AC8:  BCF    0A.3
0AC9:  BCF    03.5
0ACA:  CALL   59A
0ACB:  BSF    0A.3
.................... 		Nop(); 
0ACC:  BCF    0A.3
0ACD:  CALL   59A
0ACE:  BSF    0A.3
.................... 	 } 
0ACF:  BSF    03.5
0AD0:  GOTO   2AA
....................  
.................... 	TXREG=xmit_data;		// send character 
0AD1:  MOVF   5C,W
0AD2:  BCF    03.5
0AD3:  MOVWF  19
....................  
.................... 	start_count = ulGetNowCount_msec(); 
0AD4:  BCF    0A.3
0AD5:  CALL   536
0AD6:  BSF    0A.3
0AD7:  MOVF   79,W
0AD8:  BSF    03.5
0AD9:  MOVWF  60
0ADA:  MOVF   78,W
0ADB:  MOVWF  5F
.................... 	msec_count= 0; 
0ADC:  CLRF   5E
0ADD:  CLRF   5D
....................  
....................  	while ((!TX_Ready()) && (msec_count < 2 )){ 		// wait untill transmit buffer is empty 
0ADE:  BTFSC  18.1
0ADF:  GOTO   305
0AE0:  MOVF   5E,F
0AE1:  BTFSS  03.2
0AE2:  GOTO   305
0AE3:  MOVF   5D,W
0AE4:  SUBLW  01
0AE5:  BTFSS  03.0
0AE6:  GOTO   305
0AE7:  BCF    03.5
0AE8:  CLRF   28
0AE9:  BTFSC  0B.7
0AEA:  BSF    28.7
0AEB:  BCF    0B.7
.................... 		 msec_count = ulGetDelaymSec( start_count); 
0AEC:  BSF    03.5
0AED:  MOVF   60,W
0AEE:  MOVWF  67
0AEF:  MOVF   5F,W
0AF0:  MOVWF  66
0AF1:  BCF    0A.3
0AF2:  BCF    03.5
0AF3:  CALL   4FB
0AF4:  BSF    0A.3
0AF5:  BTFSC  28.7
0AF6:  BSF    0B.7
0AF7:  MOVF   79,W
0AF8:  BSF    03.5
0AF9:  MOVWF  5E
0AFA:  MOVF   78,W
0AFB:  MOVWF  5D
.................... 		Nop(); 
0AFC:  BCF    0A.3
0AFD:  BCF    03.5
0AFE:  CALL   59A
0AFF:  BSF    0A.3
.................... 		Nop(); 
0B00:  BCF    0A.3
0B01:  CALL   59A
0B02:  BSF    0A.3
....................  
.................... 	 } 
0B03:  BSF    03.5
0B04:  GOTO   2DE
.................... } 
0B05:  BCF    03.5
0B06:  BSF    0A.3
0B07:  BCF    0A.4
0B08:  GOTO   31C (RETURN)
....................  
.................... #SEPARATE 
.................... void SendSciString(char *string) 
.................... { 
.................... 	int count=0; 
0B09:  BSF    03.5
0B0A:  CLRF   5A
.................... 	while ((*string) && (count < 40)) { 
0B0B:  MOVF   59,W
0B0C:  MOVWF  04
0B0D:  MOVF   00,F
0B0E:  BTFSC  03.2
0B0F:  GOTO   31F
0B10:  MOVF   5A,W
0B11:  SUBLW  27
0B12:  BTFSS  03.0
0B13:  GOTO   31F
.................... 		SendChar(*(string++)); 
0B14:  MOVF   59,W
0B15:  INCF   59,F
0B16:  MOVWF  04
0B17:  MOVF   00,W
0B18:  MOVWF  5B
0B19:  MOVWF  5C
0B1A:  BCF    03.5
0B1B:  GOTO   29E
.................... 		count++; 
0B1C:  BSF    03.5
0B1D:  INCF   5A,F
.................... 	} 
0B1E:  GOTO   30B
.................... } 
0B1F:  BCF    03.5
0B20:  RETLW  00
.................... //========================================= 
.................... // End of sci.c 
.................... //========================================= 
....................  
.................... #include 	"sub.c" 
.................... ///////////////////////////////////////////////////////////////////////// 
.................... // 
.................... //	Project Name 	: EWDO-21 Digital Input for EW Inverter 
.................... //						  for    
.................... //	Fiele Name	 	: sub.c 
.................... // 
.................... //  Start 			: 2007.03.25 sunday 
.................... //  Finish			: ?			:  
.................... // 
.................... /////////////////////////////////////////////////////////////////////////// 
.................... #SEPARATE 
.................... void Nop() 
.................... { 
.................... 	#asm 
.................... 		nop 
*
059A:  NOP
.................... 	#endasm 
.................... } 
059B:  RETLW  00
.................... 		 
.................... #SEPARATE 
.................... char WriteEeprom(char addr,char data) 
.................... { 
....................  
.................... 	EEADR 	= addr; 
.................... 	EEDATA 	= data; 
....................  
.................... 	bit_clear(EECON1,7);				// 	EEPGD(EECON1<7>) == 0 data eeprom access 
.................... 	bit_set(EECON1,2);					// WREN(EECON1 <2>) 
....................  
.................... //	global_interrupt_disable(); 
....................  
.................... 	EECON2 = 0x55; 
.................... 	EECON2 = 0xAA; 
....................  
.................... 	bit_set(EECON1,1);					// WR(EECON1<1>) 
.................... 	bit_clear(EECON1,2);					// WREN(EECON1 <2>) 
....................  
.................... 	delay_ms(10); 
....................  
.................... //	global_interrupt_enable(); 
....................  
.................... 	if( (EECON1 && 0b00000010) != 0) return FALSE; 
.................... 	else							 return TRUE; 
.................... } 
....................  
.................... #SEPARATE 
.................... char ReadEeprom(char addr ) 
.................... { 
.................... 	char Temp; 
....................  
.................... 	EEADR = addr; 
.................... 	bit_clear(EECON1,7); 
.................... 	bit_set(EECON1,0); 
....................  
.................... 	Temp = EEDATA; 
.................... 	return	Temp; 
.................... } 
....................  
.................... #SEPARATE 
.................... unsigned long ulGetNowCount_msec() 
.................... { 
.................... 	return gulRtsCount; 
*
0536:  MOVF   5F,W
0537:  MOVWF  78
0538:  MOVF   60,W
0539:  MOVWF  79
.................... } 
053A:  RETLW  00
....................  
.................... #SEPARATE 
.................... unsigned long ulGetDelaymSec(unsigned long Start) 
.................... { 
.................... 	if( gulRtsCount < Start) return 65535 - Start + gulRtsCount; 
*
04FB:  MOVF   60,W
04FC:  BSF    03.5
04FD:  SUBWF  67,W
04FE:  BTFSS  03.0
04FF:  GOTO   524
0500:  BTFSS  03.2
0501:  GOTO   50A
0502:  MOVF   66,W
0503:  BCF    03.5
0504:  SUBWF  5F,W
0505:  BTFSS  03.0
0506:  GOTO   509
0507:  BSF    03.5
0508:  GOTO   524
0509:  BSF    03.5
050A:  MOVF   66,W
050B:  SUBLW  FF
050C:  MOVWF  68
050D:  MOVLW  FF
050E:  MOVWF  69
050F:  MOVF   67,W
0510:  BTFSS  03.0
0511:  INCFSZ 67,W
0512:  SUBWF  69,F
0513:  BCF    03.5
0514:  MOVF   5F,W
0515:  BSF    03.5
0516:  ADDWF  68,W
0517:  MOVWF  78
0518:  MOVF   69,W
0519:  MOVWF  7A
051A:  BCF    03.5
051B:  MOVF   60,W
051C:  BTFSC  03.0
051D:  INCFSZ 60,W
051E:  ADDWF  7A,F
051F:  MOVF   7A,W
0520:  MOVWF  79
0521:  GOTO   535
.................... 	else 				   return gulRtsCount - Start; 
0522:  GOTO   535
0523:  BSF    03.5
0524:  MOVF   66,W
0525:  BCF    03.5
0526:  SUBWF  5F,W
0527:  MOVWF  77
0528:  MOVF   60,W
0529:  MOVWF  7A
052A:  BSF    03.5
052B:  MOVF   67,W
052C:  BTFSS  03.0
052D:  INCFSZ 67,W
052E:  SUBWF  7A,F
052F:  MOVF   77,W
0530:  MOVWF  78
0531:  MOVF   7A,W
0532:  MOVWF  79
0533:  BCF    03.5
0534:  GOTO   535
.................... }	 
0535:  RETLW  00
....................  
.................... void delay_msec( unsigned long delay_time) 
.................... { 
.................... 	unsigned long start_count; 
....................  
.................... 	start_count = ulGetNowCount_msec(); 
.................... 	while( ulGetDelaymSec(start_count) < delay_time); 
.................... }	 
....................  
.................... //======================================== 
.................... //  
.................... // GetErrText  MFxx  xx FAULT    
.................... //  
.................... //======================================== 
....................  
.................... #SEPARATE 
.................... void ErrorProc(int ErrorCode) 
.................... { 
.................... } 
....................  
.................... #include 	"KeyProc.c" 
.................... ///////////////////////////////////////////////////////////////////////// 
.................... //	Project Name 	: Lcd operator for Converter   
.................... //	Fiele Name	 	: keyProc.c 
.................... // 
.................... //  Start 			: 2015.08.20 Thursday 
.................... // 
.................... /////////////////////////////////////////////////////////////////////////// 
.................... // read data format   "9:4:123:x.xxxe-x" 
.................... // write data format  "9:6:123:1.234e-3" 
....................  
.................... #define KEY_IN_VIEW_SILK	1 
....................  
.................... #if KEY_IN_VIEW_SILK 
.................... #SEPARATE 
.................... BUTTON GetKey1() //     
.................... { 
.................... 	BUTTON KeySave;	 
.................... 	if		(!input(KEY_STOP))	KeySave = BTN_ESC; 
*
07A4:  BSF    03.5
07A5:  BSF    05.1
07A6:  BCF    03.5
07A7:  BTFSC  05.1
07A8:  GOTO   7AE
07A9:  MOVLW  06
07AA:  BSF    03.5
07AB:  MOVWF  59
.................... 	else if (!input(KEY_UP)) 	KeySave = BTN_SAVE; 
07AC:  GOTO   7F6
07AD:  BCF    03.5
07AE:  BSF    03.5
07AF:  BSF    06.4
07B0:  BCF    03.5
07B1:  BTFSC  06.4
07B2:  GOTO   7B8
07B3:  MOVLW  08
07B4:  BSF    03.5
07B5:  MOVWF  59
.................... 	else if (!input(KEY_DOWN))	KeySave = BTN_RIGHT; 
07B6:  GOTO   7F6
07B7:  BCF    03.5
07B8:  BSF    03.5
07B9:  BSF    06.5
07BA:  BCF    03.5
07BB:  BTFSC  06.5
07BC:  GOTO   7C2
07BD:  MOVLW  05
07BE:  BSF    03.5
07BF:  MOVWF  59
.................... 	else if (!input(KEY_RIGHT)) keySave = BTN_DOWN;		 
07C0:  GOTO   7F6
07C1:  BCF    03.5
07C2:  BSF    03.5
07C3:  BSF    06.1
07C4:  BCF    03.5
07C5:  BTFSC  06.1
07C6:  GOTO   7CC
07C7:  MOVLW  04
07C8:  BSF    03.5
07C9:  MOVWF  59
.................... 	else if (!input(KEY_ESC))	KeySave = BTN_STOP; 
07CA:  GOTO   7F6
07CB:  BCF    03.5
07CC:  BSF    03.5
07CD:  BSF    06.3
07CE:  BCF    03.5
07CF:  BTFSC  06.3
07D0:  GOTO   7D6
07D1:  MOVLW  02
07D2:  BSF    03.5
07D3:  MOVWF  59
.................... 	else if (!input(KEY_SAVE))	KeySave = BTN_UP;	 
07D4:  GOTO   7F6
07D5:  BCF    03.5
07D6:  BSF    03.5
07D7:  BSF    06.2
07D8:  BCF    03.5
07D9:  BTFSC  06.2
07DA:  GOTO   7E0
07DB:  MOVLW  03
07DC:  BSF    03.5
07DD:  MOVWF  59
.................... 	else if (!input(KEY_SET))	KeySave = BTN_RUN;	 
07DE:  GOTO   7F6
07DF:  BCF    03.5
07E0:  BSF    03.5
07E1:  BSF    06.0
07E2:  BCF    03.5
07E3:  BTFSC  06.0
07E4:  GOTO   7EA
07E5:  MOVLW  01
07E6:  BSF    03.5
07E7:  MOVWF  59
.................... 	else if	(!input(KEY_RUN))	KeySave = BTN_SET;  
07E8:  GOTO   7F6
07E9:  BCF    03.5
07EA:  BSF    03.5
07EB:  BSF    05.0
07EC:  BCF    03.5
07ED:  BTFSC  05.0
07EE:  GOTO   7F4
07EF:  MOVLW  07
07F0:  BSF    03.5
07F1:  MOVWF  59
.................... 	else 						KeySave = BTN_NULL; 
07F2:  GOTO   7F6
07F3:  BCF    03.5
07F4:  BSF    03.5
07F5:  CLRF   59
....................  
.................... 	return KeySave; 
07F6:  MOVF   59,W
07F7:  MOVWF  78
.................... } 
07F8:  BCF    03.5
07F9:  RETLW  00
.................... #else 
.................... BUTTON GetKey1() //    LCD     
.................... { 
.................... 	BUTTON KeySave; 
.................... 	 
.................... 	if		(!input(KEY_STOP))	KeySave = BTN_STOP; 
.................... 	else if (!input(KEY_UP)) 	KeySave = BTN_UP; 
.................... 	else if (!input(KEY_DOWN))	KeySave = BTN_DOWN; 
.................... 	else if (!input(KEY_RIGHT)) keySave = BTN_RIGHT;		 
.................... 	else if (!input(KEY_ESC))	KeySave = BTN_ESC; 
.................... 	else if (!input(KEY_SAVE))	KeySave = BTN_SAVE;	 
.................... 	else if (!input(KEY_SET))	KeySave = BTN_SET;	 
.................... 	else if	(!input(KEY_RUN))	KeySave = BTN_RUN;  
.................... 	else 						KeySave = BTN_NULL; 
.................... 	 
.................... 	if(KeySave != BTN_NULL)	delay_ms(50); 
.................... 	return KeySave; 
.................... } 
.................... #endif 
....................  
.................... #SEPARATE 
.................... BUTTON GetKey( ) 
.................... { 
.................... 	BUTTON KeySave;	 
....................  
.................... 	KeySave = GetKey1(); 
*
0800:  BCF    0A.3
0801:  CALL   7A4
0802:  BSF    0A.3
0803:  MOVF   78,W
0804:  BSF    03.5
0805:  MOVWF  58
....................  
....................  	if( KeySave != BTN_NULL){ 
0806:  MOVF   58,F
0807:  BTFSC  03.2
0808:  GOTO   015
.................... 		delay_ms(20); 
0809:  MOVLW  14
080A:  MOVWF  65
080B:  BCF    0A.3
080C:  BCF    03.5
080D:  CALL   587
080E:  BSF    0A.3
.................... 		KeySave = GetKey1(); 
080F:  BCF    0A.3
0810:  CALL   7A4
0811:  BSF    0A.3
0812:  MOVF   78,W
0813:  BSF    03.5
0814:  MOVWF  58
.................... 	}	 
.................... 	if( KeySave != BTN_NULL){ 
0815:  MOVF   58,F
0816:  BTFSC  03.2
0817:  GOTO   02B
.................... 		while( GetKey1()!= BTN_NULL ); 
0818:  BCF    0A.3
0819:  BCF    03.5
081A:  CALL   7A4
081B:  BSF    0A.3
081C:  MOVF   78,F
081D:  BTFSC  03.2
081E:  GOTO   021
081F:  BSF    03.5
0820:  GOTO   018
.................... 		delay_ms(10); 
0821:  MOVLW  0A
0822:  BSF    03.5
0823:  MOVWF  65
0824:  BCF    0A.3
0825:  BCF    03.5
0826:  CALL   587
0827:  BSF    0A.3
.................... 		secWatchDog=0; 
0828:  CLRF   2C
0829:  CLRF   2B
082A:  BSF    03.5
.................... 	} 
.................... 	return KeySave;  
082B:  MOVF   58,W
082C:  MOVWF  78
.................... } 
082D:  BCF    03.5
082E:  RETLW  00
....................  
.................... //                          {"01234567890123456789"} 
.................... const char str_clear_line[21] = {"                    "}; 
.................... const char msgEditAddr[21] ={"[EDIT] 000:0.000e+0 "}; 
....................  
.................... void clear_line( int low ) 
.................... { 
.................... 	strcpy(st,str_clear_line); PrintLCD(low,0,st);  
*
0BE0:  CLRF   58
0BE1:  CLRF   59
0BE2:  MOVLW  4A
0BE3:  MOVWF  04
0BE4:  MOVF   58,W
0BE5:  ADDWF  04,F
0BE6:  MOVF   59,W
0BE7:  BCF    0A.3
0BE8:  BCF    03.5
0BE9:  CALL   03E
0BEA:  BSF    0A.3
0BEB:  MOVWF  00
0BEC:  IORLW  00
0BED:  BTFSC  03.2
0BEE:  GOTO   3F4
0BEF:  BSF    03.5
0BF0:  INCF   59,F
0BF1:  INCF   58,F
0BF2:  GOTO   3E2
0BF3:  BCF    03.5
0BF4:  BSF    03.5
0BF5:  MOVF   57,W
0BF6:  MOVWF  59
0BF7:  CLRF   5A
0BF8:  MOVLW  4A
0BF9:  MOVWF  5B
0BFA:  BCF    0A.3
0BFB:  BCF    03.5
0BFC:  CALL   6B0
0BFD:  BSF    0A.3
0BFE:  NOP
.................... } 
....................  
.................... #define JSK		7 
....................  
.................... const char CODE_POS[9][2] ={{0,0+JSK},{0,1+JSK},{0,2+JSK}, 
.................... 	{0,4+JSK},{0,6+JSK},{0,7+JSK},{0,8+JSK},{0,10+JSK},{0,11+JSK}}; 
....................  
.................... // read data format   "0123456789012345" 
.................... // read data format   "9:4:123:x.xxxe-x" 
.................... // write data format  "9:6:123:1.234e-3" 
....................  
.................... #SEPARATE 
.................... void CopyCode2TxMsg(int cmd) 
.................... { 
.................... 	gSciTxBuf[0] = '9'; gSciTxBuf[1] = ':'; 
*
0A70:  MOVLW  39
0A71:  MOVWF  3A
0A72:  MOVLW  3A
0A73:  MOVWF  3B
.................... 	gSciTxBuf[2] = '4'; gSciTxBuf[3] = ':'; 
0A74:  MOVLW  34
0A75:  MOVWF  3C
0A76:  MOVLW  3A
0A77:  MOVWF  3D
.................... //--- write address  
.................... 	gSciTxBuf[4] = Code[0];	gSciTxBuf[5] =Code[1];	 
0A78:  MOVF   2E,W
0A79:  MOVWF  3E
0A7A:  MOVF   2F,W
0A7B:  MOVWF  3F
.................... 	gSciTxBuf[6] =Code[2]; 	gSciTxBuf[7] = ':'; 
0A7C:  MOVF   30,W
0A7D:  MOVWF  40
0A7E:  MOVLW  3A
0A7F:  MOVWF  41
.................... //--- write data 
.................... 	gSciTxBuf[8]  =Code[3]; gSciTxBuf[9]  ='.'; 
0A80:  MOVF   31,W
0A81:  MOVWF  42
0A82:  MOVLW  2E
0A83:  MOVWF  43
.................... 	gSciTxBuf[10] =Code[4]; gSciTxBuf[11] =Code[5]; 
0A84:  MOVF   32,W
0A85:  MOVWF  44
0A86:  MOVF   33,W
0A87:  MOVWF  45
.................... 	gSciTxBuf[12] =Code[6];  
0A88:  MOVF   34,W
0A89:  MOVWF  46
.................... //--- exponent part 
.................... 	gSciTxBuf[13] ='e'; gSciTxBuf[14] =Code[7];  
0A8A:  MOVLW  65
0A8B:  MOVWF  47
0A8C:  MOVF   35,W
0A8D:  MOVWF  48
.................... 	gSciTxBuf[15] =Code[8];  
0A8E:  MOVF   36,W
0A8F:  MOVWF  49
....................  
.................... 	if( cmd == SCI_CMD_WRITE_ROM ) gSciTxBuf[2] = '6'; 
0A90:  BSF    03.5
0A91:  MOVF   57,W
0A92:  SUBLW  48
0A93:  BTFSS  03.2
0A94:  GOTO   29A
0A95:  MOVLW  36
0A96:  BCF    03.5
0A97:  MOVWF  3C
.................... 	else gSciTxBuf[2] = '4';				// read data		 
0A98:  GOTO   29D
0A99:  BSF    03.5
0A9A:  MOVLW  34
0A9B:  BCF    03.5
0A9C:  MOVWF  3C
.................... } 
0A9D:  RETLW  00
....................  
.................... #SEPARATE 
.................... void monitor_converter() 
.................... { 
.................... 	BUTTON KeyIn; 
.................... 	unsigned int disp_count=0; 
*
14DF:  BSF    03.5
14E0:  CLRF   54
.................... 	int loopCtrl =1; 
14E1:  MOVLW  01
14E2:  MOVWF  55
.................... 	int debug; 
....................  
.................... 	LCD_Clear(); 
14E3:  MOVWF  5F
14E4:  BCF    0A.4
14E5:  BCF    03.5
14E6:  CALL   59C
14E7:  BSF    0A.4
.................... 	LCD_Cmd(CURSOR_OFF); 
14E8:  MOVLW  0C
14E9:  BSF    03.5
14EA:  MOVWF  5F
14EB:  BCF    0A.4
14EC:  BCF    03.5
14ED:  CALL   59C
14EE:  BSF    0A.4
....................  
.................... 	while( loopCtrl) 
.................... 	{  
14EF:  BSF    03.5
14F0:  MOVF   55,F
14F1:  BTFSC  03.2
14F2:  GOTO   6D9
.................... 		KeyIn = GetKey(); 
14F3:  BCF    0A.4
14F4:  BSF    0A.3
14F5:  BCF    03.5
14F6:  CALL   000
14F7:  BSF    0A.4
14F8:  BCF    0A.3
14F9:  MOVF   78,W
14FA:  BSF    03.5
14FB:  MOVWF  53
.................... 		lcd_y_posi = 1; lcd_x_posi = 0; 
14FC:  MOVLW  01
14FD:  BCF    03.5
14FE:  MOVWF  62
14FF:  CLRF   61
....................  
.................... 		debug =getSciMsg(st); 		 
1500:  MOVLW  4A
1501:  BSF    03.5
1502:  MOVWF  59
1503:  BCF    0A.4
1504:  BSF    0A.3
1505:  BCF    03.5
1506:  CALL   321
1507:  BSF    0A.4
1508:  BCF    0A.3
1509:  MOVF   78,W
150A:  BSF    03.5
150B:  MOVWF  56
.................... 		if( debug ) { 
150C:  MOVF   56,F
150D:  BTFSC  03.2
150E:  GOTO   523
.................... 			if(debug > 19 ); st[19] = 0; 
150F:  MOVF   56,W
1510:  SUBLW  13
1511:  BTFSS  03.0
1512:  GOTO   513
1513:  BCF    03.5
1514:  CLRF   5D
.................... 			printLCD(lcd_y_posi,lcd_y_posi,st); 
1515:  MOVF   62,W
1516:  BSF    03.5
1517:  MOVWF  59
1518:  BCF    03.5
1519:  MOVF   62,W
151A:  BSF    03.5
151B:  MOVWF  5A
151C:  MOVLW  4A
151D:  MOVWF  5B
151E:  BCF    0A.4
151F:  BCF    03.5
1520:  CALL   6B0
1521:  BSF    0A.4
1522:  BSF    03.5
.................... 		} 
....................  
.................... 		if		( KeyIn == BTN_SET 	){	machine_state = STATE_SET_MODE; loopCtrl = 0;	return;} 
1523:  MOVF   53,W
1524:  SUBLW  07
1525:  BTFSS  03.2
1526:  GOTO   52E
1527:  MOVLW  03
1528:  BCF    03.5
1529:  MOVWF  2A
152A:  BSF    03.5
152B:  CLRF   55
152C:  GOTO   6D9
.................... 		else if	(KeyIn == BTN_RUN	){	strcpy(gSciTxBuf,"9:4:905:0.000e-0"); SendSciString( gSciTxBuf );} 
152D:  GOTO   6CF
152E:  DECFSZ 53,W
152F:  GOTO   54F
1530:  CLRF   57
1531:  CLRF   58
1532:  MOVLW  3A
1533:  MOVWF  04
1534:  MOVF   57,W
1535:  ADDWF  04,F
1536:  MOVF   58,W
1537:  BCF    0A.4
1538:  BCF    03.5
1539:  CALL   086
153A:  BSF    0A.4
153B:  MOVWF  00
153C:  IORLW  00
153D:  BTFSC  03.2
153E:  GOTO   544
153F:  BSF    03.5
1540:  INCF   58,F
1541:  INCF   57,F
1542:  GOTO   532
1543:  BCF    03.5
1544:  MOVLW  3A
1545:  BSF    03.5
1546:  MOVWF  59
1547:  BCF    0A.4
1548:  BSF    0A.3
1549:  BCF    03.5
154A:  CALL   309
154B:  BSF    0A.4
154C:  BCF    0A.3
.................... 		else if	(KeyIn == BTN_STOP	){	strcpy(gSciTxBuf,"9:4:905:1.000e-0"); SendSciString( gSciTxBuf );} 
154D:  GOTO   6D0
154E:  BSF    03.5
154F:  MOVF   53,W
1550:  SUBLW  02
1551:  BTFSS  03.2
1552:  GOTO   572
1553:  CLRF   57
1554:  CLRF   58
1555:  MOVLW  3A
1556:  MOVWF  04
1557:  MOVF   57,W
1558:  ADDWF  04,F
1559:  MOVF   58,W
155A:  BCF    0A.4
155B:  BCF    03.5
155C:  CALL   09B
155D:  BSF    0A.4
155E:  MOVWF  00
155F:  IORLW  00
1560:  BTFSC  03.2
1561:  GOTO   567
1562:  BSF    03.5
1563:  INCF   58,F
1564:  INCF   57,F
1565:  GOTO   555
1566:  BCF    03.5
1567:  MOVLW  3A
1568:  BSF    03.5
1569:  MOVWF  59
156A:  BCF    0A.4
156B:  BSF    0A.3
156C:  BCF    03.5
156D:  CALL   309
156E:  BSF    0A.4
156F:  BCF    0A.3
.................... 		else if	(KeyIn == BTN_UP	){ 	strcpy(gSciTxBuf,"9:4:905:2.000e-0"); SendSciString( gSciTxBuf );} 
1570:  GOTO   6D0
1571:  BSF    03.5
1572:  MOVF   53,W
1573:  SUBLW  03
1574:  BTFSS  03.2
1575:  GOTO   595
1576:  CLRF   57
1577:  CLRF   58
1578:  MOVLW  3A
1579:  MOVWF  04
157A:  MOVF   57,W
157B:  ADDWF  04,F
157C:  MOVF   58,W
157D:  BCF    0A.4
157E:  BCF    03.5
157F:  CALL   0B0
1580:  BSF    0A.4
1581:  MOVWF  00
1582:  IORLW  00
1583:  BTFSC  03.2
1584:  GOTO   58A
1585:  BSF    03.5
1586:  INCF   58,F
1587:  INCF   57,F
1588:  GOTO   578
1589:  BCF    03.5
158A:  MOVLW  3A
158B:  BSF    03.5
158C:  MOVWF  59
158D:  BCF    0A.4
158E:  BSF    0A.3
158F:  BCF    03.5
1590:  CALL   309
1591:  BSF    0A.4
1592:  BCF    0A.3
.................... 		else if	(KeyIn == BTN_DOWN	){	strcpy(gSciTxBuf,"9:4:905:3.000e-0"); SendSciString( gSciTxBuf );} 
1593:  GOTO   6D0
1594:  BSF    03.5
1595:  MOVF   53,W
1596:  SUBLW  04
1597:  BTFSS  03.2
1598:  GOTO   5B8
1599:  CLRF   57
159A:  CLRF   58
159B:  MOVLW  3A
159C:  MOVWF  04
159D:  MOVF   57,W
159E:  ADDWF  04,F
159F:  MOVF   58,W
15A0:  BCF    0A.4
15A1:  BCF    03.5
15A2:  CALL   0C5
15A3:  BSF    0A.4
15A4:  MOVWF  00
15A5:  IORLW  00
15A6:  BTFSC  03.2
15A7:  GOTO   5AD
15A8:  BSF    03.5
15A9:  INCF   58,F
15AA:  INCF   57,F
15AB:  GOTO   59B
15AC:  BCF    03.5
15AD:  MOVLW  3A
15AE:  BSF    03.5
15AF:  MOVWF  59
15B0:  BCF    0A.4
15B1:  BSF    0A.3
15B2:  BCF    03.5
15B3:  CALL   309
15B4:  BSF    0A.4
15B5:  BCF    0A.3
.................... 		else{ 
15B6:  GOTO   6D0
15B7:  BSF    03.5
.................... 			if( disp_count == 0){  
15B8:  MOVF   54,F
15B9:  BTFSS  03.2
15BA:  GOTO   5D5
.................... 				lcd_y_posi = 0; lcd_x_posi = 0; 
15BB:  BCF    03.5
15BC:  CLRF   62
15BD:  CLRF   61
.................... 				strcpy(gSciTxBuf,"9:4:901:0.000e-0"); 
15BE:  BSF    03.5
15BF:  CLRF   57
15C0:  CLRF   58
15C1:  MOVLW  3A
15C2:  MOVWF  04
15C3:  MOVF   57,W
15C4:  ADDWF  04,F
15C5:  MOVF   58,W
15C6:  BCF    0A.4
15C7:  BCF    03.5
15C8:  CALL   0DA
15C9:  BSF    0A.4
15CA:  MOVWF  00
15CB:  IORLW  00
15CC:  BTFSC  03.2
15CD:  GOTO   5D3
15CE:  BSF    03.5
15CF:  INCF   58,F
15D0:  INCF   57,F
15D1:  GOTO   5C1
15D2:  BCF    03.5
.................... 			} 
.................... 			else if( disp_count == 1){ 
15D3:  GOTO   66A
15D4:  BSF    03.5
15D5:  DECFSZ 54,W
15D6:  GOTO   5F2
.................... 				lcd_y_posi = 0; lcd_x_posi = 10; 
15D7:  BCF    03.5
15D8:  CLRF   62
15D9:  MOVLW  0A
15DA:  MOVWF  61
.................... 				strcpy(gSciTxBuf,"9:4:902:0.000e-0");	// Power Input 
15DB:  BSF    03.5
15DC:  CLRF   57
15DD:  CLRF   58
15DE:  MOVLW  3A
15DF:  MOVWF  04
15E0:  MOVF   57,W
15E1:  ADDWF  04,F
15E2:  MOVF   58,W
15E3:  BCF    0A.4
15E4:  BCF    03.5
15E5:  CALL   0EF
15E6:  BSF    0A.4
15E7:  MOVWF  00
15E8:  IORLW  00
15E9:  BTFSC  03.2
15EA:  GOTO   5F0
15EB:  BSF    03.5
15EC:  INCF   58,F
15ED:  INCF   57,F
15EE:  GOTO   5DE
15EF:  BCF    03.5
.................... 			}	 
.................... 			else if( disp_count == 2){ 
15F0:  GOTO   66A
15F1:  BSF    03.5
15F2:  MOVF   54,W
15F3:  SUBLW  02
15F4:  BTFSS  03.2
15F5:  GOTO   611
.................... 				lcd_y_posi = 2; lcd_x_posi = 0; 
15F6:  MOVLW  02
15F7:  BCF    03.5
15F8:  MOVWF  62
15F9:  CLRF   61
.................... 				strcpy(gSciTxBuf,"9:4:902:1.000e-0");	// Vdc 
15FA:  BSF    03.5
15FB:  CLRF   57
15FC:  CLRF   58
15FD:  MOVLW  3A
15FE:  MOVWF  04
15FF:  MOVF   57,W
1600:  ADDWF  04,F
1601:  MOVF   58,W
1602:  BCF    0A.4
1603:  BCF    03.5
1604:  CALL   107
1605:  BSF    0A.4
1606:  MOVWF  00
1607:  IORLW  00
1608:  BTFSC  03.2
1609:  GOTO   60F
160A:  BSF    03.5
160B:  INCF   58,F
160C:  INCF   57,F
160D:  GOTO   5FD
160E:  BCF    03.5
.................... 			} 
.................... 			else if( disp_count == 3){ 
160F:  GOTO   66A
1610:  BSF    03.5
1611:  MOVF   54,W
1612:  SUBLW  03
1613:  BTFSS  03.2
1614:  GOTO   631
.................... 				lcd_y_posi = 2; lcd_x_posi = 10; 
1615:  MOVLW  02
1616:  BCF    03.5
1617:  MOVWF  62
1618:  MOVLW  0A
1619:  MOVWF  61
.................... 				strcpy(gSciTxBuf,"9:4:902:2.000e-0");	// I RMS Source  
161A:  BSF    03.5
161B:  CLRF   57
161C:  CLRF   58
161D:  MOVLW  3A
161E:  MOVWF  04
161F:  MOVF   57,W
1620:  ADDWF  04,F
1621:  MOVF   58,W
1622:  BCF    0A.4
1623:  BCF    03.5
1624:  CALL   11C
1625:  BSF    0A.4
1626:  MOVWF  00
1627:  IORLW  00
1628:  BTFSC  03.2
1629:  GOTO   62F
162A:  BSF    03.5
162B:  INCF   58,F
162C:  INCF   57,F
162D:  GOTO   61D
162E:  BCF    03.5
.................... 			} 
.................... 			else if( disp_count == 4){ 
162F:  GOTO   66A
1630:  BSF    03.5
1631:  MOVF   54,W
1632:  SUBLW  04
1633:  BTFSS  03.2
1634:  GOTO   650
.................... 				lcd_y_posi = 3; lcd_x_posi = 0; 
1635:  MOVLW  03
1636:  BCF    03.5
1637:  MOVWF  62
1638:  CLRF   61
.................... 				strcpy(gSciTxBuf,"9:4:902:3.000e-0");	// I alpa 
1639:  BSF    03.5
163A:  CLRF   57
163B:  CLRF   58
163C:  MOVLW  3A
163D:  MOVWF  04
163E:  MOVF   57,W
163F:  ADDWF  04,F
1640:  MOVF   58,W
1641:  BCF    0A.4
1642:  BCF    03.5
1643:  CALL   131
1644:  BSF    0A.4
1645:  MOVWF  00
1646:  IORLW  00
1647:  BTFSC  03.2
1648:  GOTO   64E
1649:  BSF    03.5
164A:  INCF   58,F
164B:  INCF   57,F
164C:  GOTO   63C
164D:  BCF    03.5
.................... 			} 
.................... 			else { 
164E:  GOTO   66A
164F:  BSF    03.5
.................... 				lcd_y_posi = 3; lcd_x_posi = 10; 
1650:  MOVLW  03
1651:  BCF    03.5
1652:  MOVWF  62
1653:  MOVLW  0A
1654:  MOVWF  61
.................... 				strcpy(gSciTxBuf,"9:4:902:4.000e-0");	// I beta 
1655:  BSF    03.5
1656:  CLRF   57
1657:  CLRF   58
1658:  MOVLW  3A
1659:  MOVWF  04
165A:  MOVF   57,W
165B:  ADDWF  04,F
165C:  MOVF   58,W
165D:  BCF    0A.4
165E:  BCF    03.5
165F:  CALL   146
1660:  BSF    0A.4
1661:  MOVWF  00
1662:  IORLW  00
1663:  BTFSC  03.2
1664:  GOTO   66A
1665:  BSF    03.5
1666:  INCF   58,F
1667:  INCF   57,F
1668:  GOTO   658
1669:  BCF    03.5
.................... 			} 
.................... 			sci_rx_msg_start = sci_rx_msg_end = 0; 
166A:  CLRF   65
166B:  MOVF   65,W
166C:  MOVWF  64
.................... 			SendSciString( gSciTxBuf ); 
166D:  MOVLW  3A
166E:  BSF    03.5
166F:  MOVWF  59
1670:  BCF    0A.4
1671:  BSF    0A.3
1672:  BCF    03.5
1673:  CALL   309
1674:  BSF    0A.4
1675:  BCF    0A.3
.................... 			delay_ms(50); 
1676:  MOVLW  32
1677:  BSF    03.5
1678:  MOVWF  65
1679:  BCF    0A.4
167A:  BCF    03.5
167B:  CALL   587
167C:  BSF    0A.4
.................... 			debug = getSciMsg(st); 
167D:  MOVLW  4A
167E:  BSF    03.5
167F:  MOVWF  59
1680:  BCF    0A.4
1681:  BSF    0A.3
1682:  BCF    03.5
1683:  CALL   321
1684:  BSF    0A.4
1685:  BCF    0A.3
1686:  MOVF   78,W
1687:  BSF    03.5
1688:  MOVWF  56
.................... 			if( debug ) { 
1689:  MOVF   56,F
168A:  BTFSC  03.2
168B:  GOTO   6A1
.................... 				if( debug> 9); 
168C:  MOVF   56,W
168D:  SUBLW  09
168E:  BTFSS  03.0
168F:  GOTO   690
.................... 				st[10] = 0; 
1690:  BCF    03.5
1691:  CLRF   54
.................... 				printLCD(lcd_y_posi,lcd_x_posi,st); 
1692:  MOVF   62,W
1693:  BSF    03.5
1694:  MOVWF  59
1695:  BCF    03.5
1696:  MOVF   61,W
1697:  BSF    03.5
1698:  MOVWF  5A
1699:  MOVLW  4A
169A:  MOVWF  5B
169B:  BCF    0A.4
169C:  BCF    03.5
169D:  CALL   6B0
169E:  BSF    0A.4
.................... 			} 
.................... 			else { 
169F:  GOTO   6C7
16A0:  BSF    03.5
.................... 				strcpy(st,"  ---   ");	 
16A1:  CLRF   57
16A2:  CLRF   58
16A3:  MOVLW  4A
16A4:  MOVWF  04
16A5:  MOVF   57,W
16A6:  ADDWF  04,F
16A7:  MOVF   58,W
16A8:  BCF    0A.4
16A9:  BCF    03.5
16AA:  CALL   15B
16AB:  BSF    0A.4
16AC:  MOVWF  00
16AD:  IORLW  00
16AE:  BTFSC  03.2
16AF:  GOTO   6B5
16B0:  BSF    03.5
16B1:  INCF   58,F
16B2:  INCF   57,F
16B3:  GOTO   6A3
16B4:  BCF    03.5
.................... 				st[0] = disp_count + '0'; 
16B5:  MOVLW  30
16B6:  BSF    03.5
16B7:  ADDWF  54,W
16B8:  BCF    03.5
16B9:  MOVWF  4A
.................... 				printLCD(lcd_y_posi,lcd_x_posi,st); 
16BA:  MOVF   62,W
16BB:  BSF    03.5
16BC:  MOVWF  59
16BD:  BCF    03.5
16BE:  MOVF   61,W
16BF:  BSF    03.5
16C0:  MOVWF  5A
16C1:  MOVLW  4A
16C2:  MOVWF  5B
16C3:  BCF    0A.4
16C4:  BCF    03.5
16C5:  CALL   6B0
16C6:  BSF    0A.4
.................... 			} 
.................... 			if(disp_count >= 5 ) disp_count = 0;  
16C7:  BSF    03.5
16C8:  MOVF   54,W
16C9:  SUBLW  04
16CA:  BTFSC  03.0
16CB:  GOTO   6CE
16CC:  CLRF   54
.................... 			else disp_count ++; 
16CD:  GOTO   6CF
16CE:  INCF   54,F
16CF:  BCF    03.5
.................... 		} 
.................... 		delay_ms(100); 
16D0:  MOVLW  64
16D1:  BSF    03.5
16D2:  MOVWF  65
16D3:  BCF    0A.4
16D4:  BCF    03.5
16D5:  CALL   587
16D6:  BSF    0A.4
.................... 	} // while loop 
16D7:  GOTO   4EF
16D8:  BSF    03.5
.................... } 
16D9:  BCF    03.5
16DA:  BSF    0A.3
16DB:  BSF    0A.4
16DC:  GOTO   283 (RETURN)
....................  
.................... #SEPARATE 
.................... void SelectMenuPage2() 
.................... { 
.................... 	BUTTON KeyIn; 
.................... 	int loopCtrl =1; 
*
0964:  MOVLW  01
0965:  BSF    03.5
0966:  MOVWF  54
.................... 	int selection = 1; 
0967:  MOVWF  55
....................  
.................... 	LCD_Clear(); 
0968:  MOVWF  5F
0969:  BCF    0A.3
096A:  BCF    03.5
096B:  CALL   59C
096C:  BSF    0A.3
.................... 	strcpy(st, " - MAIN MENU -   2/2"); 
096D:  BSF    03.5
096E:  CLRF   56
096F:  CLRF   57
0970:  MOVLW  4A
0971:  MOVWF  04
0972:  MOVF   56,W
0973:  ADDWF  04,F
0974:  MOVF   57,W
0975:  BCF    0A.3
0976:  BCF    03.5
0977:  CALL   168
0978:  BSF    0A.3
0979:  MOVWF  00
097A:  IORLW  00
097B:  BTFSC  03.2
097C:  GOTO   182
097D:  BSF    03.5
097E:  INCF   57,F
097F:  INCF   56,F
0980:  GOTO   170
0981:  BCF    03.5
.................... 	PrintLCD(0,0,st); 
0982:  BSF    03.5
0983:  CLRF   59
0984:  CLRF   5A
0985:  MOVLW  4A
0986:  MOVWF  5B
0987:  BCF    0A.3
0988:  BCF    03.5
0989:  CALL   6B0
098A:  BSF    0A.3
....................  
.................... 	DisplayChar(1, 0, '4'); 
098B:  MOVLW  01
098C:  BSF    03.5
098D:  MOVWF  5E
098E:  CLRF   5F
098F:  MOVLW  34
0990:  MOVWF  60
0991:  BCF    0A.3
0992:  BCF    03.5
0993:  CALL   667
0994:  BSF    0A.3
.................... 	strcpy(st, " DATE & TIME SET  "); 
0995:  BSF    03.5
0996:  CLRF   56
0997:  CLRF   57
0998:  MOVLW  4A
0999:  MOVWF  04
099A:  MOVF   56,W
099B:  ADDWF  04,F
099C:  MOVF   57,W
099D:  BCF    0A.3
099E:  BCF    03.5
099F:  CALL   181
09A0:  BSF    0A.3
09A1:  MOVWF  00
09A2:  IORLW  00
09A3:  BTFSC  03.2
09A4:  GOTO   1AA
09A5:  BSF    03.5
09A6:  INCF   57,F
09A7:  INCF   56,F
09A8:  GOTO   198
09A9:  BCF    03.5
.................... 	PrintLCD(1,2,st); 
09AA:  MOVLW  01
09AB:  BSF    03.5
09AC:  MOVWF  59
09AD:  MOVLW  02
09AE:  MOVWF  5A
09AF:  MOVLW  4A
09B0:  MOVWF  5B
09B1:  BCF    0A.3
09B2:  BCF    03.5
09B3:  CALL   6B0
09B4:  BSF    0A.3
....................  
.................... 	DisplayChar(2, 0, '5'); 
09B5:  MOVLW  02
09B6:  BSF    03.5
09B7:  MOVWF  5E
09B8:  CLRF   5F
09B9:  MOVLW  35
09BA:  MOVWF  60
09BB:  BCF    0A.3
09BC:  BCF    03.5
09BD:  CALL   667
09BE:  BSF    0A.3
.................... 	strcpy(st, " RECORD CLEAR ALL "); 
09BF:  BSF    03.5
09C0:  CLRF   56
09C1:  CLRF   57
09C2:  MOVLW  4A
09C3:  MOVWF  04
09C4:  MOVF   56,W
09C5:  ADDWF  04,F
09C6:  MOVF   57,W
09C7:  BCF    0A.3
09C8:  BCF    03.5
09C9:  CALL   198
09CA:  BSF    0A.3
09CB:  MOVWF  00
09CC:  IORLW  00
09CD:  BTFSC  03.2
09CE:  GOTO   1D4
09CF:  BSF    03.5
09D0:  INCF   57,F
09D1:  INCF   56,F
09D2:  GOTO   1C2
09D3:  BCF    03.5
.................... 	PrintLCD(2,2,st); 
09D4:  MOVLW  02
09D5:  BSF    03.5
09D6:  MOVWF  59
09D7:  MOVWF  5A
09D8:  MOVLW  4A
09D9:  MOVWF  5B
09DA:  BCF    0A.3
09DB:  BCF    03.5
09DC:  CALL   6B0
09DD:  BSF    0A.3
....................  
.................... 	DisplayChar(3, 0, '6'); 
09DE:  MOVLW  03
09DF:  BSF    03.5
09E0:  MOVWF  5E
09E1:  CLRF   5F
09E2:  MOVLW  36
09E3:  MOVWF  60
09E4:  BCF    0A.3
09E5:  BCF    03.5
09E6:  CALL   667
09E7:  BSF    0A.3
.................... 	strcpy(st, " SYSTEM INIT      "); 
09E8:  BSF    03.5
09E9:  CLRF   56
09EA:  CLRF   57
09EB:  MOVLW  4A
09EC:  MOVWF  04
09ED:  MOVF   56,W
09EE:  ADDWF  04,F
09EF:  MOVF   57,W
09F0:  BCF    0A.3
09F1:  BCF    03.5
09F2:  CALL   1AF
09F3:  BSF    0A.3
09F4:  MOVWF  00
09F5:  IORLW  00
09F6:  BTFSC  03.2
09F7:  GOTO   1FD
09F8:  BSF    03.5
09F9:  INCF   57,F
09FA:  INCF   56,F
09FB:  GOTO   1EB
09FC:  BCF    03.5
.................... 	strcpy(st, " POSION VALUE TEST"); 
09FD:  BSF    03.5
09FE:  CLRF   56
09FF:  CLRF   57
0A00:  MOVLW  4A
0A01:  MOVWF  04
0A02:  MOVF   56,W
0A03:  ADDWF  04,F
0A04:  MOVF   57,W
0A05:  BCF    0A.3
0A06:  BCF    03.5
0A07:  CALL   1C6
0A08:  BSF    0A.3
0A09:  MOVWF  00
0A0A:  IORLW  00
0A0B:  BTFSC  03.2
0A0C:  GOTO   212
0A0D:  BSF    03.5
0A0E:  INCF   57,F
0A0F:  INCF   56,F
0A10:  GOTO   200
0A11:  BCF    03.5
.................... 	PrintLCD(3,2,st); 
0A12:  MOVLW  03
0A13:  BSF    03.5
0A14:  MOVWF  59
0A15:  MOVLW  02
0A16:  MOVWF  5A
0A17:  MOVLW  4A
0A18:  MOVWF  5B
0A19:  BCF    0A.3
0A1A:  BCF    03.5
0A1B:  CALL   6B0
0A1C:  BSF    0A.3
....................  
.................... 	while( loopCtrl ) 
.................... 	{ 
0A1D:  BSF    03.5
0A1E:  MOVF   54,F
0A1F:  BTFSC  03.2
0A20:  GOTO   26C
.................... 		Cursor(selection,0,CURSOR_BLINK); 
0A21:  MOVF   55,W
0A22:  MOVWF  5B
0A23:  CLRF   5C
0A24:  MOVLW  0F
0A25:  MOVWF  5D
0A26:  BCF    03.5
0A27:  CALL   02F
.................... 		KeyIn = GetKey(); 
0A28:  CALL   000
0A29:  MOVF   78,W
0A2A:  BSF    03.5
0A2B:  MOVWF  53
.................... 	 
.................... 		if( KeyIn == BTN_DOWN ){ 
0A2C:  MOVF   53,W
0A2D:  SUBLW  04
0A2E:  BTFSS  03.2
0A2F:  GOTO   23E
.................... 			if(selection >= 3 ){ 
0A30:  MOVF   55,W
0A31:  SUBLW  02
0A32:  BTFSC  03.0
0A33:  GOTO   23A
.................... 				machine_state = STATE_SET_MODE; 
0A34:  MOVLW  03
0A35:  BCF    03.5
0A36:  MOVWF  2A
.................... 				return; 
0A37:  GOTO   26D
.................... 			} 
.................... 			else selection ++; 
0A38:  GOTO   23C
0A39:  BSF    03.5
0A3A:  INCF   55,F
0A3B:  BCF    03.5
.................... 		} 
.................... 		else if( KeyIn == BTN_UP ){ 
0A3C:  GOTO   26A
0A3D:  BSF    03.5
0A3E:  MOVF   53,W
0A3F:  SUBLW  03
0A40:  BTFSS  03.2
0A41:  GOTO   247
.................... 			if(selection > 1 ) selection --; 
0A42:  MOVF   55,W
0A43:  SUBLW  01
0A44:  BTFSS  03.0
0A45:  DECF   55,F
.................... 		} 
.................... 		else if ( (KeyIn == BTN_ESC) || (KeyIn == BTN_RIGHT)){  
0A46:  GOTO   26B
0A47:  MOVF   53,W
0A48:  SUBLW  06
0A49:  BTFSC  03.2
0A4A:  GOTO   24F
0A4B:  MOVF   53,W
0A4C:  SUBLW  05
0A4D:  BTFSS  03.2
0A4E:  GOTO   255
.................... 			machine_state = STATE_SET_MODE; 
0A4F:  MOVLW  03
0A50:  BCF    03.5
0A51:  MOVWF  2A
.................... 			return; 
0A52:  GOTO   26D
.................... 		}  
.................... 		else if ( KeyIn == BTN_STOP){ 
0A53:  GOTO   26A
0A54:  BSF    03.5
0A55:  MOVF   53,W
0A56:  SUBLW  02
0A57:  BTFSS  03.2
0A58:  GOTO   25E
.................... 			machine_state = STATE_MONITOR_MODE; 
0A59:  BCF    03.5
0A5A:  CLRF   2A
.................... 			return; 
0A5B:  GOTO   26D
.................... 		} 
.................... 		else if( KeyIn == BTN_SET){ 
0A5C:  GOTO   26A
0A5D:  BSF    03.5
0A5E:  MOVF   53,W
0A5F:  SUBLW  07
0A60:  BTFSS  03.2
0A61:  GOTO   26B
.................... 			if(		 selection == 1) Machine_state = STATE_TIME_MODE; 
0A62:  DECFSZ 55,W
0A63:  GOTO   268
0A64:  MOVLW  05
0A65:  BCF    03.5
0A66:  MOVWF  2A
0A67:  BSF    03.5
.................... 			// else if( selection == 2)	machine_state = STATE_TRIP_MODE; 
.................... 			// else						machine_state = STATE_RESET_MODE; 
.................... 			return; 
0A68:  BCF    03.5
0A69:  GOTO   26D
0A6A:  BSF    03.5
.................... 		}	 
.................... 	} 
0A6B:  GOTO   21E
0A6C:  BCF    03.5
.................... } 
0A6D:  BSF    0A.3
0A6E:  BSF    0A.4
0A6F:  GOTO   284 (RETURN)
....................  
.................... #SEPARATE 
.................... void SelectMenuPage1()			// System   
.................... { 
.................... 	BUTTON KeyIn; 
....................  
.................... 	int loopCtrl =1; 
*
085F:  MOVLW  01
0860:  BSF    03.5
0861:  MOVWF  54
.................... 	int selection = 1; 
0862:  MOVWF  55
....................  
.................... 	LCD_Clear(); 
0863:  MOVWF  5F
0864:  BCF    0A.3
0865:  BCF    03.5
0866:  CALL   59C
0867:  BSF    0A.3
.................... 	strcpy(st, " - MAIN MENU -   1/2"); 
0868:  BSF    03.5
0869:  CLRF   56
086A:  CLRF   57
086B:  MOVLW  4A
086C:  MOVWF  04
086D:  MOVF   56,W
086E:  ADDWF  04,F
086F:  MOVF   57,W
0870:  BCF    0A.3
0871:  BCF    03.5
0872:  CALL   1DD
0873:  BSF    0A.3
0874:  MOVWF  00
0875:  IORLW  00
0876:  BTFSC  03.2
0877:  GOTO   07D
0878:  BSF    03.5
0879:  INCF   57,F
087A:  INCF   56,F
087B:  GOTO   06B
087C:  BCF    03.5
.................... 	PrintLCD(0,0,st); 
087D:  BSF    03.5
087E:  CLRF   59
087F:  CLRF   5A
0880:  MOVLW  4A
0881:  MOVWF  5B
0882:  BCF    0A.3
0883:  BCF    03.5
0884:  CALL   6B0
0885:  BSF    0A.3
....................  
.................... 	DisplayChar(1, 0, '1'); 
0886:  MOVLW  01
0887:  BSF    03.5
0888:  MOVWF  5E
0889:  CLRF   5F
088A:  MOVLW  31
088B:  MOVWF  60
088C:  BCF    0A.3
088D:  BCF    03.5
088E:  CALL   667
088F:  BSF    0A.3
.................... 	strcpy(st, " EDIT CTRL DATA   "); 
0890:  BSF    03.5
0891:  CLRF   56
0892:  CLRF   57
0893:  MOVLW  4A
0894:  MOVWF  04
0895:  MOVF   56,W
0896:  ADDWF  04,F
0897:  MOVF   57,W
0898:  BCF    0A.3
0899:  BCF    03.5
089A:  CALL   1F6
089B:  BSF    0A.3
089C:  MOVWF  00
089D:  IORLW  00
089E:  BTFSC  03.2
089F:  GOTO   0A5
08A0:  BSF    03.5
08A1:  INCF   57,F
08A2:  INCF   56,F
08A3:  GOTO   093
08A4:  BCF    03.5
.................... 	PrintLCD(1,2,st); 
08A5:  MOVLW  01
08A6:  BSF    03.5
08A7:  MOVWF  59
08A8:  MOVLW  02
08A9:  MOVWF  5A
08AA:  MOVLW  4A
08AB:  MOVWF  5B
08AC:  BCF    0A.3
08AD:  BCF    03.5
08AE:  CALL   6B0
08AF:  BSF    0A.3
....................  
.................... 	DisplayChar(2, 0, '2'); 
08B0:  MOVLW  02
08B1:  BSF    03.5
08B2:  MOVWF  5E
08B3:  CLRF   5F
08B4:  MOVLW  32
08B5:  MOVWF  60
08B6:  BCF    0A.3
08B7:  BCF    03.5
08B8:  CALL   667
08B9:  BSF    0A.3
.................... 	strcpy(st, " TRIP RECORD VIEW  "); 
08BA:  BSF    03.5
08BB:  CLRF   56
08BC:  CLRF   57
08BD:  MOVLW  4A
08BE:  MOVWF  04
08BF:  MOVF   56,W
08C0:  ADDWF  04,F
08C1:  MOVF   57,W
08C2:  BCF    0A.3
08C3:  BCF    03.5
08C4:  CALL   210
08C5:  BSF    0A.3
08C6:  MOVWF  00
08C7:  IORLW  00
08C8:  BTFSC  03.2
08C9:  GOTO   0CF
08CA:  BSF    03.5
08CB:  INCF   57,F
08CC:  INCF   56,F
08CD:  GOTO   0BD
08CE:  BCF    03.5
.................... 	PrintLCD(2,2,st); 
08CF:  MOVLW  02
08D0:  BSF    03.5
08D1:  MOVWF  59
08D2:  MOVWF  5A
08D3:  MOVLW  4A
08D4:  MOVWF  5B
08D5:  BCF    0A.3
08D6:  BCF    03.5
08D7:  CALL   6B0
08D8:  BSF    0A.3
....................  
.................... 	DisplayChar(3, 0, '3'); 
08D9:  MOVLW  03
08DA:  BSF    03.5
08DB:  MOVWF  5E
08DC:  CLRF   5F
08DD:  MOVLW  33
08DE:  MOVWF  60
08DF:  BCF    0A.3
08E0:  BCF    03.5
08E1:  CALL   667
08E2:  BSF    0A.3
.................... 	strcpy(st, " SYSTEM RESET     "); 
08E3:  BSF    03.5
08E4:  CLRF   56
08E5:  CLRF   57
08E6:  MOVLW  4A
08E7:  MOVWF  04
08E8:  MOVF   56,W
08E9:  ADDWF  04,F
08EA:  MOVF   57,W
08EB:  BCF    0A.3
08EC:  BCF    03.5
08ED:  CALL   228
08EE:  BSF    0A.3
08EF:  MOVWF  00
08F0:  IORLW  00
08F1:  BTFSC  03.2
08F2:  GOTO   0F8
08F3:  BSF    03.5
08F4:  INCF   57,F
08F5:  INCF   56,F
08F6:  GOTO   0E6
08F7:  BCF    03.5
.................... 	PrintLCD(3,2,st); 
08F8:  MOVLW  03
08F9:  BSF    03.5
08FA:  MOVWF  59
08FB:  MOVLW  02
08FC:  MOVWF  5A
08FD:  MOVLW  4A
08FE:  MOVWF  5B
08FF:  BCF    0A.3
0900:  BCF    03.5
0901:  CALL   6B0
0902:  BSF    0A.3
....................  
....................  
.................... 	while( loopCtrl ) 
.................... 	{ 
0903:  BSF    03.5
0904:  MOVF   54,F
0905:  BTFSC  03.2
0906:  GOTO   160
.................... 		KeyIn = GetKey(); 
0907:  BCF    03.5
0908:  CALL   000
0909:  MOVF   78,W
090A:  BSF    03.5
090B:  MOVWF  53
.................... 	 
.................... 		Cursor(selection,0,CURSOR_BLINK); 
090C:  MOVF   55,W
090D:  MOVWF  5B
090E:  CLRF   5C
090F:  MOVLW  0F
0910:  MOVWF  5D
0911:  BCF    03.5
0912:  CALL   02F
.................... 		if( KeyIn == BTN_DOWN ){ 
0913:  BSF    03.5
0914:  MOVF   53,W
0915:  SUBLW  04
0916:  BTFSS  03.2
0917:  GOTO   126
.................... 			if(selection >= 3 ){ 
0918:  MOVF   55,W
0919:  SUBLW  02
091A:  BTFSC  03.0
091B:  GOTO   122
.................... 				machine_state = STATE_SET_MODE2; 
091C:  MOVLW  0B
091D:  BCF    03.5
091E:  MOVWF  2A
.................... 				return; 
091F:  GOTO   161
.................... 			} 
.................... 			else selection ++; 
0920:  GOTO   124
0921:  BSF    03.5
0922:  INCF   55,F
0923:  BCF    03.5
.................... 		} 
.................... 		else if( KeyIn == BTN_UP ){ 
0924:  GOTO   15E
0925:  BSF    03.5
0926:  MOVF   53,W
0927:  SUBLW  03
0928:  BTFSS  03.2
0929:  GOTO   12F
.................... 			if(selection > 1 ) selection --; 
092A:  MOVF   55,W
092B:  SUBLW  01
092C:  BTFSS  03.0
092D:  DECF   55,F
.................... 		} 
.................... 		else if (( KeyIn == BTN_RIGHT)|| (KeyIn == BTN_ESC)){  
092E:  GOTO   15F
092F:  MOVF   53,W
0930:  SUBLW  05
0931:  BTFSC  03.2
0932:  GOTO   137
0933:  MOVF   53,W
0934:  SUBLW  06
0935:  BTFSS  03.2
0936:  GOTO   13D
.................... 			machine_state = STATE_SET_MODE2; 
0937:  MOVLW  0B
0938:  BCF    03.5
0939:  MOVWF  2A
.................... 			return; 
093A:  GOTO   161
.................... 		}  
.................... 		else if ( KeyIn == BTN_STOP){ 
093B:  GOTO   15E
093C:  BSF    03.5
093D:  MOVF   53,W
093E:  SUBLW  02
093F:  BTFSS  03.2
0940:  GOTO   146
.................... 			machine_state = STATE_MONITOR_MODE; 
0941:  BCF    03.5
0942:  CLRF   2A
.................... 			return; 
0943:  GOTO   161
.................... 		} 
.................... 		else if( KeyIn == BTN_SET){ 
0944:  GOTO   15E
0945:  BSF    03.5
0946:  MOVF   53,W
0947:  SUBLW  07
0948:  BTFSS  03.2
0949:  GOTO   15F
.................... 			if(		 selection == 1) 	Machine_state = STATE_EDIT_MODE; 
094A:  DECFSZ 55,W
094B:  GOTO   151
094C:  MOVLW  01
094D:  BCF    03.5
094E:  MOVWF  2A
.................... 			else if( selection == 2)	machine_state = STATE_TRIP_MODE; 
094F:  GOTO   15D
0950:  BSF    03.5
0951:  MOVF   55,W
0952:  SUBLW  02
0953:  BTFSS  03.2
0954:  GOTO   15A
0955:  MOVLW  02
0956:  BCF    03.5
0957:  MOVWF  2A
.................... 			else						machine_state = STATE_RESET_MODE; 
0958:  GOTO   15D
0959:  BSF    03.5
095A:  MOVLW  04
095B:  BCF    03.5
095C:  MOVWF  2A
.................... 			return; 
095D:  GOTO   161
095E:  BSF    03.5
.................... 		}	 
.................... 	} 
095F:  GOTO   104
0960:  BCF    03.5
.................... } 
0961:  BSF    0A.3
0962:  BSF    0A.4
0963:  GOTO   284 (RETURN)
....................  
.................... 	 
.................... #SEPARATE 
.................... void EditCodeDataProc() 
.................... { 
.................... 	BUTTON KeyIn; 
....................  
.................... 	int i; 
.................... 	int loopCtrl = 1; 
*
0B4F:  MOVLW  01
0B50:  BSF    03.5
0B51:  MOVWF  55
.................... 	int changeCode; 
....................  
.................... 	LCD_Clear(); 
0B52:  MOVWF  5F
0B53:  BCF    0A.3
0B54:  BCF    03.5
0B55:  CALL   59C
0B56:  BSF    0A.3
....................  
.................... 	strcpy(st,msgEditAddr); PrintLCD(0,0,st);  
0B57:  BSF    03.5
0B58:  CLRF   57
0B59:  CLRF   58
0B5A:  MOVLW  4A
0B5B:  MOVWF  04
0B5C:  MOVF   57,W
0B5D:  ADDWF  04,F
0B5E:  MOVF   58,W
0B5F:  BCF    0A.3
0B60:  BCF    03.5
0B61:  CALL   057
0B62:  BSF    0A.3
0B63:  MOVWF  00
0B64:  IORLW  00
0B65:  BTFSC  03.2
0B66:  GOTO   36C
0B67:  BSF    03.5
0B68:  INCF   58,F
0B69:  INCF   57,F
0B6A:  GOTO   35A
0B6B:  BCF    03.5
0B6C:  BSF    03.5
0B6D:  CLRF   59
0B6E:  CLRF   5A
0B6F:  MOVLW  4A
0B70:  MOVWF  5B
0B71:  BCF    0A.3
0B72:  BCF    03.5
0B73:  CALL   6B0
0B74:  BSF    0A.3
....................  
.................... 	SerialPortSetup();	 
0B75:  BCF    0A.3
0B76:  CALL   612
0B77:  BSF    0A.3
.................... 	for ( i = 0; i< 9;i++) Code[i] = '0'; 
0B78:  BSF    03.5
0B79:  CLRF   54
0B7A:  MOVF   54,W
0B7B:  SUBLW  08
0B7C:  BTFSS  03.0
0B7D:  GOTO   385
0B7E:  MOVLW  2E
0B7F:  ADDWF  54,W
0B80:  MOVWF  04
0B81:  MOVLW  30
0B82:  MOVWF  00
0B83:  INCF   54,F
0B84:  GOTO   37A
.................... 	Code[7] = '+'; 
0B85:  MOVLW  2B
0B86:  BCF    03.5
0B87:  MOVWF  35
....................  
.................... 	CodeID = 0; 
0B88:  CLRF   2D
.................... 	Cursor(CODE_POS[CodeId][0],CODE_POS[CodeId][1],CURSOR_BLINK);					 
0B89:  BCF    03.0
0B8A:  RLF    2D,W
0B8B:  BCF    0A.3
0B8C:  CALL   070
0B8D:  BSF    0A.3
0B8E:  BSF    03.5
0B8F:  MOVWF  58
0B90:  BCF    03.0
0B91:  BCF    03.5
0B92:  RLF    2D,W
0B93:  ADDLW  01
0B94:  BCF    0A.3
0B95:  CALL   070
0B96:  BSF    0A.3
0B97:  BSF    03.5
0B98:  MOVWF  5A
0B99:  MOVF   58,W
0B9A:  MOVWF  5B
0B9B:  MOVF   5A,W
0B9C:  MOVWF  5C
0B9D:  MOVLW  0F
0B9E:  MOVWF  5D
0B9F:  BCF    03.5
0BA0:  CALL   02F
....................  
.................... 	while( loopCtrl) 
.................... 	{ 
0BA1:  BSF    03.5
0BA2:  MOVF   55,F
0BA3:  BTFSC  03.2
0BA4:  GOTO   59A
....................  
.................... 		KeyIn = GetKey(); 
0BA5:  BCF    03.5
0BA6:  CALL   000
0BA7:  MOVF   78,W
0BA8:  BSF    03.5
0BA9:  MOVWF  53
.................... 	 
.................... 		changeCode = 1; 
0BAA:  MOVLW  01
0BAB:  MOVWF  56
.................... 		Cursor(CODE_POS[CodeID][0],CODE_POS[CodeID][1],DISPLAY_CURSE_BLINK_ON);//CURSOR_OFF); 
0BAC:  BCF    03.0
0BAD:  BCF    03.5
0BAE:  RLF    2D,W
0BAF:  BCF    0A.3
0BB0:  CALL   070
0BB1:  BSF    0A.3
0BB2:  BSF    03.5
0BB3:  MOVWF  58
0BB4:  BCF    03.0
0BB5:  BCF    03.5
0BB6:  RLF    2D,W
0BB7:  ADDLW  01
0BB8:  BCF    0A.3
0BB9:  CALL   070
0BBA:  BSF    0A.3
0BBB:  BSF    03.5
0BBC:  MOVWF  5A
0BBD:  MOVF   58,W
0BBE:  MOVWF  5B
0BBF:  MOVF   5A,W
0BC0:  MOVWF  5C
0BC1:  MOVLW  0F
0BC2:  MOVWF  5D
0BC3:  BCF    03.5
0BC4:  CALL   02F
....................  
.................... 		if ( KeyIn == BTN_ESC){ 
0BC5:  BSF    03.5
0BC6:  MOVF   53,W
0BC7:  SUBLW  06
0BC8:  BTFSS  03.2
0BC9:  GOTO   3D4
.................... 			if(CodeId == 0) CodeID = 8 ; 
0BCA:  BCF    03.5
0BCB:  MOVF   2D,F
0BCC:  BTFSS  03.2
0BCD:  GOTO   3D1
0BCE:  MOVLW  08
0BCF:  MOVWF  2D
.................... 			else			CodeID -- ; 
0BD0:  GOTO   3D2
0BD1:  DECF   2D,F
.................... 		}	 
.................... 		else if ( KeyIn == BTN_SET){ 
0BD2:  GOTO   55B
0BD3:  BSF    03.5
0BD4:  MOVF   53,W
0BD5:  SUBLW  07
0BD6:  BTFSS  03.2
0BD7:  GOTO   49E
.................... 			for( i = 1 ; i< 4; i++ ) clear_line(i); 
0BD8:  MOVLW  01
0BD9:  MOVWF  54
0BDA:  MOVF   54,W
0BDB:  SUBLW  03
0BDC:  BTFSS  03.0
0BDD:  GOTO   402
0BDE:  MOVF   54,W
0BDF:  MOVWF  57
*
0BFF:  BSF    03.5
0C00:  INCF   54,F
0C01:  GOTO   3DA
.................... 			CopyCode2TxMsg(SCI_CMD_READ_DATA); 
0C02:  MOVLW  46
0C03:  MOVWF  57
0C04:  BCF    03.5
0C05:  CALL   270
....................  
.................... 		//--- write data 
.................... 			gSciTxBuf[9]  ='.';	gSciTxBuf[10] ='0'; gSciTxBuf[11] ='0';	gSciTxBuf[12] ='0';  
0C06:  MOVLW  2E
0C07:  MOVWF  43
0C08:  MOVLW  30
0C09:  MOVWF  44
0C0A:  MOVWF  45
0C0B:  MOVWF  46
.................... 		//--- exponent part 
.................... 			gSciTxBuf[13] ='e'; gSciTxBuf[14] ='+'; gSciTxBuf[15] ='0';  
0C0C:  MOVLW  65
0C0D:  MOVWF  47
0C0E:  MOVLW  2B
0C0F:  MOVWF  48
0C10:  MOVLW  30
0C11:  MOVWF  49
....................  
.................... 		//--- print code discription 
.................... 			gSciTxBuf[8]  ='1'; 
0C12:  MOVLW  31
0C13:  MOVWF  42
.................... 			sci_rx_msg_start = sci_rx_msg_end = 0; 
0C14:  CLRF   65
0C15:  MOVF   65,W
0C16:  MOVWF  64
.................... 			SendSciString( gSciTxBuf ); 
0C17:  MOVLW  3A
0C18:  BSF    03.5
0C19:  MOVWF  59
0C1A:  BCF    03.5
0C1B:  CALL   309
.................... 			delay_ms(100); 
0C1C:  MOVLW  64
0C1D:  BSF    03.5
0C1E:  MOVWF  65
0C1F:  BCF    0A.3
0C20:  BCF    03.5
0C21:  CALL   587
0C22:  BSF    0A.3
.................... 			i = getSciMsg(st);  
0C23:  MOVLW  4A
0C24:  BSF    03.5
0C25:  MOVWF  59
0C26:  BCF    03.5
0C27:  CALL   321
0C28:  MOVF   78,W
0C29:  BSF    03.5
0C2A:  MOVWF  54
.................... 			if(i) printLCD(2,0,st); 
0C2B:  MOVF   54,F
0C2C:  BTFSC  03.2
0C2D:  GOTO   439
0C2E:  MOVLW  02
0C2F:  MOVWF  59
0C30:  CLRF   5A
0C31:  MOVLW  4A
0C32:  MOVWF  5B
0C33:  BCF    0A.3
0C34:  BCF    03.5
0C35:  CALL   6B0
0C36:  BSF    0A.3
.................... 			else { 
0C37:  GOTO   457
0C38:  BSF    03.5
.................... 				strcpy(st,"NO Received Data");				 
0C39:  CLRF   57
0C3A:  CLRF   58
0C3B:  MOVLW  4A
0C3C:  MOVWF  04
0C3D:  MOVF   57,W
0C3E:  ADDWF  04,F
0C3F:  MOVF   58,W
0C40:  BCF    0A.3
0C41:  BCF    03.5
0C42:  CALL   23F
0C43:  BSF    0A.3
0C44:  MOVWF  00
0C45:  IORLW  00
0C46:  BTFSC  03.2
0C47:  GOTO   44D
0C48:  BSF    03.5
0C49:  INCF   58,F
0C4A:  INCF   57,F
0C4B:  GOTO   43B
0C4C:  BCF    03.5
.................... 				printLCD(1,0,st); 
0C4D:  MOVLW  01
0C4E:  BSF    03.5
0C4F:  MOVWF  59
0C50:  CLRF   5A
0C51:  MOVLW  4A
0C52:  MOVWF  5B
0C53:  BCF    0A.3
0C54:  BCF    03.5
0C55:  CALL   6B0
0C56:  BSF    0A.3
.................... 			} 
....................  
.................... 			gSciTxBuf[8]  ='2'; 
0C57:  MOVLW  32
0C58:  MOVWF  42
.................... 			sci_rx_msg_start = sci_rx_msg_end = 0; 
0C59:  CLRF   65
0C5A:  MOVF   65,W
0C5B:  MOVWF  64
.................... 			// for(clearcnt = 0; clearcnt <40; clearcnt++) sci_rx_msg_box[clearcnt] = 0; 
.................... 			SendSciString( gSciTxBuf );  
0C5C:  MOVLW  3A
0C5D:  BSF    03.5
0C5E:  MOVWF  59
0C5F:  BCF    03.5
0C60:  CALL   309
.................... 			delay_ms(100);  
0C61:  MOVLW  64
0C62:  BSF    03.5
0C63:  MOVWF  65
0C64:  BCF    0A.3
0C65:  BCF    03.5
0C66:  CALL   587
0C67:  BSF    0A.3
.................... 			i = getSciMsg(st);  
0C68:  MOVLW  4A
0C69:  BSF    03.5
0C6A:  MOVWF  59
0C6B:  BCF    03.5
0C6C:  CALL   321
0C6D:  MOVF   78,W
0C6E:  BSF    03.5
0C6F:  MOVWF  54
.................... 			if(i) printLCD(3,0,st); 
0C70:  MOVF   54,F
0C71:  BTFSC  03.2
0C72:  GOTO   47E
0C73:  MOVLW  03
0C74:  MOVWF  59
0C75:  CLRF   5A
0C76:  MOVLW  4A
0C77:  MOVWF  5B
0C78:  BCF    0A.3
0C79:  BCF    03.5
0C7A:  CALL   6B0
0C7B:  BSF    0A.3
.................... 			else { 
0C7C:  GOTO   49C
0C7D:  BSF    03.5
.................... 				strcpy(st,"NO Received Data");				 
0C7E:  CLRF   57
0C7F:  CLRF   58
0C80:  MOVLW  4A
0C81:  MOVWF  04
0C82:  MOVF   57,W
0C83:  ADDWF  04,F
0C84:  MOVF   58,W
0C85:  BCF    0A.3
0C86:  BCF    03.5
0C87:  CALL   23F
0C88:  BSF    0A.3
0C89:  MOVWF  00
0C8A:  IORLW  00
0C8B:  BTFSC  03.2
0C8C:  GOTO   492
0C8D:  BSF    03.5
0C8E:  INCF   58,F
0C8F:  INCF   57,F
0C90:  GOTO   480
0C91:  BCF    03.5
.................... 				printLCD(3,0,st); 
0C92:  MOVLW  03
0C93:  BSF    03.5
0C94:  MOVWF  59
0C95:  CLRF   5A
0C96:  MOVLW  4A
0C97:  MOVWF  5B
0C98:  BCF    0A.3
0C99:  BCF    03.5
0C9A:  CALL   6B0
0C9B:  BSF    0A.3
.................... 			} 
.................... 		} 
.................... 		else if ( KeyIn == BTN_SAVE ){	 
0C9C:  GOTO   55B
0C9D:  BSF    03.5
0C9E:  MOVF   53,W
0C9F:  SUBLW  08
0CA0:  BTFSS  03.2
0CA1:  GOTO   4C8
.................... 			lcd_x_posi=0; lcd_y_posi=1; 
0CA2:  BCF    03.5
0CA3:  CLRF   61
0CA4:  MOVLW  01
0CA5:  MOVWF  62
.................... 			CopyCode2TxMsg(SCI_CMD_WRITE_ROM);  
0CA6:  MOVLW  48
0CA7:  BSF    03.5
0CA8:  MOVWF  57
0CA9:  BCF    03.5
0CAA:  CALL   270
.................... 			SendSciString( gSciTxBuf ); 
0CAB:  MOVLW  3A
0CAC:  BSF    03.5
0CAD:  MOVWF  59
0CAE:  BCF    03.5
0CAF:  CALL   309
.................... 			delay_ms(50); getSciMsg(st); printLCD(1,0,st); // debug 
0CB0:  MOVLW  32
0CB1:  BSF    03.5
0CB2:  MOVWF  65
0CB3:  BCF    0A.3
0CB4:  BCF    03.5
0CB5:  CALL   587
0CB6:  BSF    0A.3
0CB7:  MOVLW  4A
0CB8:  BSF    03.5
0CB9:  MOVWF  59
0CBA:  BCF    03.5
0CBB:  CALL   321
0CBC:  MOVLW  01
0CBD:  BSF    03.5
0CBE:  MOVWF  59
0CBF:  CLRF   5A
0CC0:  MOVLW  4A
0CC1:  MOVWF  5B
0CC2:  BCF    0A.3
0CC3:  BCF    03.5
0CC4:  CALL   6B0
0CC5:  BSF    0A.3
.................... 		} 
.................... 		else if ( KeyIn == BTN_DOWN){ 
0CC6:  GOTO   55B
0CC7:  BSF    03.5
0CC8:  MOVF   53,W
0CC9:  SUBLW  04
0CCA:  BTFSS  03.2
0CCB:  GOTO   504
.................... 			if(CodeID == 7 ){ 
0CCC:  BCF    03.5
0CCD:  MOVF   2D,W
0CCE:  SUBLW  07
0CCF:  BTFSS  03.2
0CD0:  GOTO   4E4
.................... 				if( Code[CodeID] == '+') Code[CodeID] = '-'; 
0CD1:  MOVLW  2E
0CD2:  ADDWF  2D,W
0CD3:  MOVWF  04
0CD4:  MOVF   00,W
0CD5:  SUBLW  2B
0CD6:  BTFSS  03.2
0CD7:  GOTO   4DE
0CD8:  MOVLW  2E
0CD9:  ADDWF  2D,W
0CDA:  MOVWF  04
0CDB:  MOVLW  2D
0CDC:  MOVWF  00
.................... 				else                     Code[CodeID] = '+'; 
0CDD:  GOTO   4E3
0CDE:  MOVLW  2E
0CDF:  ADDWF  2D,W
0CE0:  MOVWF  04
0CE1:  MOVLW  2B
0CE2:  MOVWF  00
.................... 			} 
.................... 			else { 
0CE3:  GOTO   502
.................... 				if      ( Code[CodeID] > '9') Code[CodeID] = '9'; 
0CE4:  MOVLW  2E
0CE5:  ADDWF  2D,W
0CE6:  MOVWF  04
0CE7:  MOVF   00,W
0CE8:  SUBLW  39
0CE9:  BTFSC  03.0
0CEA:  GOTO   4F1
0CEB:  MOVLW  2E
0CEC:  ADDWF  2D,W
0CED:  MOVWF  04
0CEE:  MOVLW  39
0CEF:  MOVWF  00
.................... 				else if ( Code[CodeID] <= '0') Code[CodeID] = '9'; 
0CF0:  GOTO   502
0CF1:  MOVLW  2E
0CF2:  ADDWF  2D,W
0CF3:  MOVWF  04
0CF4:  MOVF   00,W
0CF5:  SUBLW  30
0CF6:  BTFSS  03.0
0CF7:  GOTO   4FE
0CF8:  MOVLW  2E
0CF9:  ADDWF  2D,W
0CFA:  MOVWF  04
0CFB:  MOVLW  39
0CFC:  MOVWF  00
.................... 				else 						  Code[CodeID]--; 
0CFD:  GOTO   502
0CFE:  MOVLW  2E
0CFF:  ADDWF  2D,W
0D00:  MOVWF  04
0D01:  DECF   00,F
.................... 			} 
.................... 		} 
.................... 		else if ( KeyIn == BTN_UP ){ 
0D02:  GOTO   55B
0D03:  BSF    03.5
0D04:  MOVF   53,W
0D05:  SUBLW  03
0D06:  BTFSS  03.2
0D07:  GOTO   540
.................... 			if(CodeID == 7 ){ 
0D08:  BCF    03.5
0D09:  MOVF   2D,W
0D0A:  SUBLW  07
0D0B:  BTFSS  03.2
0D0C:  GOTO   520
.................... 				if( Code[CodeID] == '+') Code[CodeID] = '-';  
0D0D:  MOVLW  2E
0D0E:  ADDWF  2D,W
0D0F:  MOVWF  04
0D10:  MOVF   00,W
0D11:  SUBLW  2B
0D12:  BTFSS  03.2
0D13:  GOTO   51A
0D14:  MOVLW  2E
0D15:  ADDWF  2D,W
0D16:  MOVWF  04
0D17:  MOVLW  2D
0D18:  MOVWF  00
.................... 				else					 Code[CodeID] = '+';	  
0D19:  GOTO   51F
0D1A:  MOVLW  2E
0D1B:  ADDWF  2D,W
0D1C:  MOVWF  04
0D1D:  MOVLW  2B
0D1E:  MOVWF  00
.................... 			} 
.................... 			else { 
0D1F:  GOTO   53E
.................... 				if     ( Code[CodeID] <  '0') 	 	Code[CodeID] = '0'; 
0D20:  MOVLW  2E
0D21:  ADDWF  2D,W
0D22:  MOVWF  04
0D23:  MOVF   00,W
0D24:  SUBLW  2F
0D25:  BTFSS  03.0
0D26:  GOTO   52D
0D27:  MOVLW  2E
0D28:  ADDWF  2D,W
0D29:  MOVWF  04
0D2A:  MOVLW  30
0D2B:  MOVWF  00
.................... 				else if( Code[CodeID] >= '9') 	 	Code[CodeID] = '0'; 
0D2C:  GOTO   53E
0D2D:  MOVLW  2E
0D2E:  ADDWF  2D,W
0D2F:  MOVWF  04
0D30:  MOVF   00,W
0D31:  SUBLW  38
0D32:  BTFSC  03.0
0D33:  GOTO   53A
0D34:  MOVLW  2E
0D35:  ADDWF  2D,W
0D36:  MOVWF  04
0D37:  MOVLW  30
0D38:  MOVWF  00
.................... 				else 								Code[CodeID]++; 
0D39:  GOTO   53E
0D3A:  MOVLW  2E
0D3B:  ADDWF  2D,W
0D3C:  MOVWF  04
0D3D:  INCF   00,F
.................... 			} 
.................... 		} 
.................... 		else if ( KeyIn == BTN_RIGHT){		 
0D3E:  GOTO   55B
0D3F:  BSF    03.5
0D40:  MOVF   53,W
0D41:  SUBLW  05
0D42:  BTFSS  03.2
0D43:  GOTO   54E
.................... 			if(CodeId == 8) CodeID = 0 ; 
0D44:  BCF    03.5
0D45:  MOVF   2D,W
0D46:  SUBLW  08
0D47:  BTFSS  03.2
0D48:  GOTO   54B
0D49:  CLRF   2D
.................... 			else			CodeID ++ ;	  
0D4A:  GOTO   54C
0D4B:  INCF   2D,F
.................... 		} 
.................... 		else if ( KeyIn ==  BTN_STOP){ 
0D4C:  GOTO   55B
0D4D:  BSF    03.5
0D4E:  MOVF   53,W
0D4F:  SUBLW  02
0D50:  BTFSS  03.2
0D51:  GOTO   559
.................... 			machine_state = STATE_SET_MODE; 
0D52:  MOVLW  03
0D53:  BCF    03.5
0D54:  MOVWF  2A
.................... 			loopCtrl = 0; 
0D55:  BSF    03.5
0D56:  CLRF   55
.................... 			return; 
0D57:  GOTO   59A
.................... 		} 
.................... 		else changeCode = 0; 
0D58:  GOTO   55A
0D59:  CLRF   56
0D5A:  BCF    03.5
.................... 		if(changeCode == 1 ){ 
0D5B:  BSF    03.5
0D5C:  DECFSZ 56,W
0D5D:  GOTO   599
.................... 			DisplayChar(CODE_POS[CodeID][0],CODE_POS[CodeID][1],Code[CodeID]); 
0D5E:  BCF    03.0
0D5F:  BCF    03.5
0D60:  RLF    2D,W
0D61:  BCF    0A.3
0D62:  CALL   070
0D63:  BSF    0A.3
0D64:  BSF    03.5
0D65:  MOVWF  58
0D66:  BCF    03.0
0D67:  BCF    03.5
0D68:  RLF    2D,W
0D69:  ADDLW  01
0D6A:  BCF    0A.3
0D6B:  CALL   070
0D6C:  BSF    0A.3
0D6D:  BSF    03.5
0D6E:  MOVWF  5A
0D6F:  MOVLW  2E
0D70:  BCF    03.5
0D71:  ADDWF  2D,W
0D72:  MOVWF  04
0D73:  MOVF   00,W
0D74:  BSF    03.5
0D75:  MOVWF  5B
0D76:  MOVF   58,W
0D77:  MOVWF  5E
0D78:  MOVF   5A,W
0D79:  MOVWF  5F
0D7A:  MOVF   5B,W
0D7B:  MOVWF  60
0D7C:  BCF    0A.3
0D7D:  BCF    03.5
0D7E:  CALL   667
0D7F:  BSF    0A.3
.................... 			Cursor(CODE_POS[CodeID][0],CODE_POS[CodeID][1],CURSOR_BLINK);				 
0D80:  BCF    03.0
0D81:  RLF    2D,W
0D82:  BCF    0A.3
0D83:  CALL   070
0D84:  BSF    0A.3
0D85:  BSF    03.5
0D86:  MOVWF  58
0D87:  BCF    03.0
0D88:  BCF    03.5
0D89:  RLF    2D,W
0D8A:  ADDLW  01
0D8B:  BCF    0A.3
0D8C:  CALL   070
0D8D:  BSF    0A.3
0D8E:  BSF    03.5
0D8F:  MOVWF  5A
0D90:  MOVF   58,W
0D91:  MOVWF  5B
0D92:  MOVF   5A,W
0D93:  MOVWF  5C
0D94:  MOVLW  0F
0D95:  MOVWF  5D
0D96:  BCF    03.5
0D97:  CALL   02F
0D98:  BSF    03.5
.................... 		} 
.................... 	} 
0D99:  GOTO   3A2
.................... } 
0D9A:  BCF    03.5
0D9B:  BSF    0A.3
0D9C:  BSF    0A.4
0D9D:  GOTO   284 (RETURN)
....................  
.................... void delay_sec() 
.................... { 
.................... 	int i; 
....................  
.................... 	for( i =0 ; i< 10 ; i++)   delay_ms(100);  
0D9E:  BSF    03.5
0D9F:  CLRF   59
0DA0:  MOVF   59,W
0DA1:  SUBLW  09
0DA2:  BTFSS  03.0
0DA3:  GOTO   5AD
0DA4:  MOVLW  64
0DA5:  MOVWF  65
0DA6:  BCF    0A.3
0DA7:  BCF    03.5
0DA8:  CALL   587
0DA9:  BSF    0A.3
0DAA:  BSF    03.5
0DAB:  INCF   59,F
0DAC:  GOTO   5A0
.................... } 
0DAD:  BCF    03.5
0DAE:  RETLW  00
.................... #SEPARATE 
.................... void printTripHystory(signed int point) 
.................... { 
.................... 	int temp; 
....................  
.................... 	LCD_clear(); 
0DAF:  MOVLW  01
0DB0:  BSF    03.5
0DB1:  MOVWF  5F
0DB2:  BCF    0A.3
0DB3:  BCF    03.5
0DB4:  CALL   59C
0DB5:  BSF    0A.3
.................... 	temp = point + '0'; 
0DB6:  MOVLW  30
0DB7:  BSF    03.5
0DB8:  ADDWF  57,W
0DB9:  MOVWF  58
....................  
.................... 	strcpy(st, "TRIP [0]"); 
0DBA:  CLRF   59
0DBB:  CLRF   5A
0DBC:  MOVLW  4A
0DBD:  MOVWF  04
0DBE:  MOVF   59,W
0DBF:  ADDWF  04,F
0DC0:  MOVF   5A,W
0DC1:  BCF    0A.3
0DC2:  BCF    03.5
0DC3:  CALL   254
0DC4:  BSF    0A.3
0DC5:  MOVWF  00
0DC6:  IORLW  00
0DC7:  BTFSC  03.2
0DC8:  GOTO   5CE
0DC9:  BSF    03.5
0DCA:  INCF   5A,F
0DCB:  INCF   59,F
0DCC:  GOTO   5BC
0DCD:  BCF    03.5
.................... 	st[6] = point + '0'; 
0DCE:  MOVLW  30
0DCF:  BSF    03.5
0DD0:  ADDWF  57,W
0DD1:  BCF    03.5
0DD2:  MOVWF  50
.................... 	PrintLCD(0,0,st); 
0DD3:  BSF    03.5
0DD4:  CLRF   59
0DD5:  CLRF   5A
0DD6:  MOVLW  4A
0DD7:  MOVWF  5B
0DD8:  BCF    0A.3
0DD9:  BCF    03.5
0DDA:  CALL   6B0
0DDB:  BSF    0A.3
....................  
....................  	delay_sec(); 
0DDC:  CALL   59E
....................  
.................... 	sci_rx_msg_start = sci_rx_msg_end = 0; 
0DDD:  CLRF   65
0DDE:  MOVF   65,W
0DDF:  MOVWF  64
.................... 	strcpy(gSciTxBuf,"9:4:903:0.000e+1");	// rq trip code 
0DE0:  BSF    03.5
0DE1:  CLRF   59
0DE2:  CLRF   5A
0DE3:  MOVLW  3A
0DE4:  MOVWF  04
0DE5:  MOVF   59,W
0DE6:  ADDWF  04,F
0DE7:  MOVF   5A,W
0DE8:  BCF    0A.3
0DE9:  BCF    03.5
0DEA:  CALL   261
0DEB:  BSF    0A.3
0DEC:  MOVWF  00
0DED:  IORLW  00
0DEE:  BTFSC  03.2
0DEF:  GOTO   5F5
0DF0:  BSF    03.5
0DF1:  INCF   5A,F
0DF2:  INCF   59,F
0DF3:  GOTO   5E3
0DF4:  BCF    03.5
.................... 	gSciTxBuf[8] = temp; 
0DF5:  BSF    03.5
0DF6:  MOVF   58,W
0DF7:  BCF    03.5
0DF8:  MOVWF  42
....................  
.................... 	SendSciString( gSciTxBuf ); 
0DF9:  MOVLW  3A
0DFA:  BSF    03.5
0DFB:  MOVWF  59
0DFC:  BCF    03.5
0DFD:  CALL   309
.................... 	delay_sec(); 
0DFE:  CALL   59E
.................... 	if( getSciMsg(st)) printLCD(0,10,st); // disp code 
0DFF:  MOVLW  4A
0E00:  BSF    03.5
0E01:  MOVWF  59
0E02:  BCF    03.5
0E03:  CALL   321
0E04:  MOVF   78,F
0E05:  BTFSC  03.2
0E06:  GOTO   612
0E07:  BSF    03.5
0E08:  CLRF   59
0E09:  MOVLW  0A
0E0A:  MOVWF  5A
0E0B:  MOVLW  4A
0E0C:  MOVWF  5B
0E0D:  BCF    0A.3
0E0E:  BCF    03.5
0E0F:  CALL   6B0
0E10:  BSF    0A.3
.................... 	else DisplayChar( 0 , 10, '-'); 
0E11:  GOTO   61C
0E12:  BSF    03.5
0E13:  CLRF   5E
0E14:  MOVLW  0A
0E15:  MOVWF  5F
0E16:  MOVLW  2D
0E17:  MOVWF  60
0E18:  BCF    0A.3
0E19:  BCF    03.5
0E1A:  CALL   667
0E1B:  BSF    0A.3
....................  
.................... 	sci_rx_msg_start = sci_rx_msg_end = 0; 
0E1C:  CLRF   65
0E1D:  MOVF   65,W
0E1E:  MOVWF  64
.................... 	strcpy(gSciTxBuf,"9:4:903:0.500e+1");   // trip time 
0E1F:  BSF    03.5
0E20:  CLRF   59
0E21:  CLRF   5A
0E22:  MOVLW  3A
0E23:  MOVWF  04
0E24:  MOVF   59,W
0E25:  ADDWF  04,F
0E26:  MOVF   5A,W
0E27:  BCF    0A.3
0E28:  BCF    03.5
0E29:  CALL   276
0E2A:  BSF    0A.3
0E2B:  MOVWF  00
0E2C:  IORLW  00
0E2D:  BTFSC  03.2
0E2E:  GOTO   634
0E2F:  BSF    03.5
0E30:  INCF   5A,F
0E31:  INCF   59,F
0E32:  GOTO   622
0E33:  BCF    03.5
.................... 	gSciTxBuf[8] = temp; 
0E34:  BSF    03.5
0E35:  MOVF   58,W
0E36:  BCF    03.5
0E37:  MOVWF  42
.................... 	SendSciString( gSciTxBuf ); 
0E38:  MOVLW  3A
0E39:  BSF    03.5
0E3A:  MOVWF  59
0E3B:  BCF    03.5
0E3C:  CALL   309
.................... 	delay_sec();  
0E3D:  CALL   59E
.................... 	if( getSciMsg(st)) printLCD(2,0,st); // time 
0E3E:  MOVLW  4A
0E3F:  BSF    03.5
0E40:  MOVWF  59
0E41:  BCF    03.5
0E42:  CALL   321
0E43:  MOVF   78,F
0E44:  BTFSC  03.2
0E45:  GOTO   651
0E46:  MOVLW  02
0E47:  BSF    03.5
0E48:  MOVWF  59
0E49:  CLRF   5A
0E4A:  MOVLW  4A
0E4B:  MOVWF  5B
0E4C:  BCF    0A.3
0E4D:  BCF    03.5
0E4E:  CALL   6B0
0E4F:  BSF    0A.3
.................... 	else DisplayChar( 2 , 1, '-'); 
0E50:  GOTO   65C
0E51:  MOVLW  02
0E52:  BSF    03.5
0E53:  MOVWF  5E
0E54:  MOVLW  01
0E55:  MOVWF  5F
0E56:  MOVLW  2D
0E57:  MOVWF  60
0E58:  BCF    0A.3
0E59:  BCF    03.5
0E5A:  CALL   667
0E5B:  BSF    0A.3
....................  
.................... 	sci_rx_msg_start = sci_rx_msg_end = 0; 
0E5C:  CLRF   65
0E5D:  MOVF   65,W
0E5E:  MOVWF  64
.................... 	strcpy(gSciTxBuf,"9:4:903:0.600e+1");   // rq trip message 
0E5F:  BSF    03.5
0E60:  CLRF   59
0E61:  CLRF   5A
0E62:  MOVLW  3A
0E63:  MOVWF  04
0E64:  MOVF   59,W
0E65:  ADDWF  04,F
0E66:  MOVF   5A,W
0E67:  BCF    0A.3
0E68:  BCF    03.5
0E69:  CALL   28B
0E6A:  BSF    0A.3
0E6B:  MOVWF  00
0E6C:  IORLW  00
0E6D:  BTFSC  03.2
0E6E:  GOTO   674
0E6F:  BSF    03.5
0E70:  INCF   5A,F
0E71:  INCF   59,F
0E72:  GOTO   662
0E73:  BCF    03.5
.................... 	gSciTxBuf[8] = temp; 
0E74:  BSF    03.5
0E75:  MOVF   58,W
0E76:  BCF    03.5
0E77:  MOVWF  42
.................... 	SendSciString( gSciTxBuf ); 
0E78:  MOVLW  3A
0E79:  BSF    03.5
0E7A:  MOVWF  59
0E7B:  BCF    03.5
0E7C:  CALL   309
.................... 	delay_sec();  
0E7D:  CALL   59E
.................... 	if( getSciMsg(st)) printLCD(1,0,st); // disp message 
0E7E:  MOVLW  4A
0E7F:  BSF    03.5
0E80:  MOVWF  59
0E81:  BCF    03.5
0E82:  CALL   321
0E83:  MOVF   78,F
0E84:  BTFSC  03.2
0E85:  GOTO   691
0E86:  MOVLW  01
0E87:  BSF    03.5
0E88:  MOVWF  59
0E89:  CLRF   5A
0E8A:  MOVLW  4A
0E8B:  MOVWF  5B
0E8C:  BCF    0A.3
0E8D:  BCF    03.5
0E8E:  CALL   6B0
0E8F:  BSF    0A.3
.................... 	else DisplayChar( 1 , 1, '-'); 
0E90:  GOTO   69B
0E91:  MOVLW  01
0E92:  BSF    03.5
0E93:  MOVWF  5E
0E94:  MOVWF  5F
0E95:  MOVLW  2D
0E96:  MOVWF  60
0E97:  BCF    0A.3
0E98:  BCF    03.5
0E99:  CALL   667
0E9A:  BSF    0A.3
....................  
.................... 	sci_rx_msg_start = sci_rx_msg_end = 0; 
0E9B:  CLRF   65
0E9C:  MOVF   65,W
0E9D:  MOVWF  64
.................... 	strcpy(gSciTxBuf,"9:4:903:0.400e+1");   // trip VDC 
0E9E:  BSF    03.5
0E9F:  CLRF   59
0EA0:  CLRF   5A
0EA1:  MOVLW  3A
0EA2:  MOVWF  04
0EA3:  MOVF   59,W
0EA4:  ADDWF  04,F
0EA5:  MOVF   5A,W
0EA6:  BCF    0A.3
0EA7:  BCF    03.5
0EA8:  CALL   2A0
0EA9:  BSF    0A.3
0EAA:  MOVWF  00
0EAB:  IORLW  00
0EAC:  BTFSC  03.2
0EAD:  GOTO   6B3
0EAE:  BSF    03.5
0EAF:  INCF   5A,F
0EB0:  INCF   59,F
0EB1:  GOTO   6A1
0EB2:  BCF    03.5
.................... 	gSciTxBuf[8] = temp; 
0EB3:  BSF    03.5
0EB4:  MOVF   58,W
0EB5:  BCF    03.5
0EB6:  MOVWF  42
.................... 	SendSciString( gSciTxBuf ); 
0EB7:  MOVLW  3A
0EB8:  BSF    03.5
0EB9:  MOVWF  59
0EBA:  BCF    03.5
0EBB:  CALL   309
.................... 	delay_sec();  
0EBC:  CALL   59E
.................... 	if( getSciMsg(st)) printLCD(3,0,st); // debug 
0EBD:  MOVLW  4A
0EBE:  BSF    03.5
0EBF:  MOVWF  59
0EC0:  BCF    03.5
0EC1:  CALL   321
0EC2:  MOVF   78,F
0EC3:  BTFSC  03.2
0EC4:  GOTO   6D0
0EC5:  MOVLW  03
0EC6:  BSF    03.5
0EC7:  MOVWF  59
0EC8:  CLRF   5A
0EC9:  MOVLW  4A
0ECA:  MOVWF  5B
0ECB:  BCF    0A.3
0ECC:  BCF    03.5
0ECD:  CALL   6B0
0ECE:  BSF    0A.3
.................... 	else{ 
0ECF:  GOTO   6EF
.................... 		strcpy(st," -    ");    
0ED0:  BSF    03.5
0ED1:  CLRF   59
0ED2:  CLRF   5A
0ED3:  MOVLW  4A
0ED4:  MOVWF  04
0ED5:  MOVF   59,W
0ED6:  ADDWF  04,F
0ED7:  MOVF   5A,W
0ED8:  BCF    0A.3
0ED9:  BCF    03.5
0EDA:  CALL   2B5
0EDB:  BSF    0A.3
0EDC:  MOVWF  00
0EDD:  IORLW  00
0EDE:  BTFSC  03.2
0EDF:  GOTO   6E5
0EE0:  BSF    03.5
0EE1:  INCF   5A,F
0EE2:  INCF   59,F
0EE3:  GOTO   6D3
0EE4:  BCF    03.5
.................... 		printLCD(3,0,st); 
0EE5:  MOVLW  03
0EE6:  BSF    03.5
0EE7:  MOVWF  59
0EE8:  CLRF   5A
0EE9:  MOVLW  4A
0EEA:  MOVWF  5B
0EEB:  BCF    0A.3
0EEC:  BCF    03.5
0EED:  CALL   6B0
0EEE:  BSF    0A.3
.................... 	} 
....................  
.................... 	sci_rx_msg_start = sci_rx_msg_end = 0; 
0EEF:  CLRF   65
0EF0:  MOVF   65,W
0EF1:  MOVWF  64
.................... 	strcpy(gSciTxBuf,"9:4:903:0.100e+1");   // trip data 
0EF2:  BSF    03.5
0EF3:  CLRF   59
0EF4:  CLRF   5A
0EF5:  MOVLW  3A
0EF6:  MOVWF  04
0EF7:  MOVF   59,W
0EF8:  ADDWF  04,F
0EF9:  MOVF   5A,W
0EFA:  BCF    0A.3
0EFB:  BCF    03.5
0EFC:  CALL   2C0
0EFD:  BSF    0A.3
0EFE:  MOVWF  00
0EFF:  IORLW  00
0F00:  BTFSC  03.2
0F01:  GOTO   707
0F02:  BSF    03.5
0F03:  INCF   5A,F
0F04:  INCF   59,F
0F05:  GOTO   6F5
0F06:  BCF    03.5
.................... 	gSciTxBuf[8] = temp; 
0F07:  BSF    03.5
0F08:  MOVF   58,W
0F09:  BCF    03.5
0F0A:  MOVWF  42
.................... 	SendSciString( gSciTxBuf ); 
0F0B:  MOVLW  3A
0F0C:  BSF    03.5
0F0D:  MOVWF  59
0F0E:  BCF    03.5
0F0F:  CALL   309
.................... 	delay_sec();  
0F10:  CALL   59E
.................... 	if( getSciMsg(st)) printLCD(3,10,st); // debug 
0F11:  MOVLW  4A
0F12:  BSF    03.5
0F13:  MOVWF  59
0F14:  BCF    03.5
0F15:  CALL   321
0F16:  MOVF   78,F
0F17:  BTFSC  03.2
0F18:  GOTO   725
0F19:  MOVLW  03
0F1A:  BSF    03.5
0F1B:  MOVWF  59
0F1C:  MOVLW  0A
0F1D:  MOVWF  5A
0F1E:  MOVLW  4A
0F1F:  MOVWF  5B
0F20:  BCF    0A.3
0F21:  BCF    03.5
0F22:  CALL   6B0
0F23:  BSF    0A.3
.................... 	else DisplayChar( 3 , 10, '-'); 
0F24:  GOTO   730
0F25:  MOVLW  03
0F26:  BSF    03.5
0F27:  MOVWF  5E
0F28:  MOVLW  0A
0F29:  MOVWF  5F
0F2A:  MOVLW  2D
0F2B:  MOVWF  60
0F2C:  BCF    0A.3
0F2D:  BCF    03.5
0F2E:  CALL   667
0F2F:  BSF    0A.3
.................... } 
0F30:  RETLW  00
.................... #SEPARATE 
.................... void TripCodeDataProc()			// EEPROM TRIP ERROR DATA LOAD 
.................... { 
.................... 	BUTTON KeyIn; 
.................... 	int loopCtrl=1; 
*
1000:  MOVLW  01
1001:  BSF    03.5
1002:  MOVWF  54
.................... 	signed int point = 0; 
1003:  CLRF   55
.................... 	int change=1; 
1004:  MOVWF  56
.................... 	LCD_Clear(); 
1005:  MOVWF  5F
1006:  BCF    0A.4
1007:  BCF    03.5
1008:  CALL   59C
1009:  BSF    0A.4
.................... 	strcpy(st, "TRIP [0]"); 
100A:  BSF    03.5
100B:  CLRF   57
100C:  CLRF   58
100D:  MOVLW  4A
100E:  MOVWF  04
100F:  MOVF   57,W
1010:  ADDWF  04,F
1011:  MOVF   58,W
1012:  BCF    0A.4
1013:  BCF    03.5
1014:  CALL   254
1015:  BSF    0A.4
1016:  MOVWF  00
1017:  IORLW  00
1018:  BTFSC  03.2
1019:  GOTO   01F
101A:  BSF    03.5
101B:  INCF   58,F
101C:  INCF   57,F
101D:  GOTO   00D
101E:  BCF    03.5
.................... 	PrintLCD(0,0,st); 
101F:  BSF    03.5
1020:  CLRF   59
1021:  CLRF   5A
1022:  MOVLW  4A
1023:  MOVWF  5B
1024:  BCF    0A.4
1025:  BCF    03.5
1026:  CALL   6B0
1027:  BSF    0A.4
....................  
.................... 	strcpy(st, "          "); 
1028:  BSF    03.5
1029:  CLRF   57
102A:  CLRF   58
102B:  MOVLW  4A
102C:  MOVWF  04
102D:  MOVF   57,W
102E:  ADDWF  04,F
102F:  MOVF   58,W
1030:  BCF    0A.4
1031:  BCF    03.5
1032:  CALL   2D5
1033:  BSF    0A.4
1034:  MOVWF  00
1035:  IORLW  00
1036:  BTFSC  03.2
1037:  GOTO   03D
1038:  BSF    03.5
1039:  INCF   58,F
103A:  INCF   57,F
103B:  GOTO   02B
103C:  BCF    03.5
.................... 	PrintLCD(0,10,st); 
103D:  BSF    03.5
103E:  CLRF   59
103F:  MOVLW  0A
1040:  MOVWF  5A
1041:  MOVLW  4A
1042:  MOVWF  5B
1043:  BCF    0A.4
1044:  BCF    03.5
1045:  CALL   6B0
1046:  BSF    0A.4
....................  
.................... 	DisplayChar(1, 0, '1'); 
1047:  MOVLW  01
1048:  BSF    03.5
1049:  MOVWF  5E
104A:  CLRF   5F
104B:  MOVLW  31
104C:  MOVWF  60
104D:  BCF    0A.4
104E:  BCF    03.5
104F:  CALL   667
1050:  BSF    0A.4
.................... 	strcpy(st, " TRIP DESCIPTION "); 
1051:  BSF    03.5
1052:  CLRF   57
1053:  CLRF   58
1054:  MOVLW  4A
1055:  MOVWF  04
1056:  MOVF   57,W
1057:  ADDWF  04,F
1058:  MOVF   58,W
1059:  BCF    0A.4
105A:  BCF    03.5
105B:  CALL   2E4
105C:  BSF    0A.4
105D:  MOVWF  00
105E:  IORLW  00
105F:  BTFSC  03.2
1060:  GOTO   066
1061:  BSF    03.5
1062:  INCF   58,F
1063:  INCF   57,F
1064:  GOTO   054
1065:  BCF    03.5
.................... 	PrintLCD(1,2,st); 
1066:  MOVLW  01
1067:  BSF    03.5
1068:  MOVWF  59
1069:  MOVLW  02
106A:  MOVWF  5A
106B:  MOVLW  4A
106C:  MOVWF  5B
106D:  BCF    0A.4
106E:  BCF    03.5
106F:  CALL   6B0
1070:  BSF    0A.4
....................  
.................... 	DisplayChar(2, 0, '2'); 
1071:  MOVLW  02
1072:  BSF    03.5
1073:  MOVWF  5E
1074:  CLRF   5F
1075:  MOVLW  32
1076:  MOVWF  60
1077:  BCF    0A.4
1078:  BCF    03.5
1079:  CALL   667
107A:  BSF    0A.4
.................... 	strcpy(st, " RECORD DATE  "); 
107B:  BSF    03.5
107C:  CLRF   57
107D:  CLRF   58
107E:  MOVLW  4A
107F:  MOVWF  04
1080:  MOVF   57,W
1081:  ADDWF  04,F
1082:  MOVF   58,W
1083:  BCF    0A.4
1084:  BCF    03.5
1085:  CALL   2FA
1086:  BSF    0A.4
1087:  MOVWF  00
1088:  IORLW  00
1089:  BTFSC  03.2
108A:  GOTO   090
108B:  BSF    03.5
108C:  INCF   58,F
108D:  INCF   57,F
108E:  GOTO   07E
108F:  BCF    03.5
.................... 	PrintLCD(2,2,st); 
1090:  MOVLW  02
1091:  BSF    03.5
1092:  MOVWF  59
1093:  MOVWF  5A
1094:  MOVLW  4A
1095:  MOVWF  5B
1096:  BCF    0A.4
1097:  BCF    03.5
1098:  CALL   6B0
1099:  BSF    0A.4
....................  
.................... 	strcpy(st, "VDC=      "); 
109A:  BSF    03.5
109B:  CLRF   57
109C:  CLRF   58
109D:  MOVLW  4A
109E:  MOVWF  04
109F:  MOVF   57,W
10A0:  ADDWF  04,F
10A1:  MOVF   58,W
10A2:  BCF    0A.4
10A3:  BCF    03.5
10A4:  CALL   311
10A5:  BSF    0A.4
10A6:  MOVWF  00
10A7:  IORLW  00
10A8:  BTFSC  03.2
10A9:  GOTO   0AF
10AA:  BSF    03.5
10AB:  INCF   58,F
10AC:  INCF   57,F
10AD:  GOTO   09D
10AE:  BCF    03.5
.................... 	PrintLCD(3,0,st); 
10AF:  MOVLW  03
10B0:  BSF    03.5
10B1:  MOVWF  59
10B2:  CLRF   5A
10B3:  MOVLW  4A
10B4:  MOVWF  5B
10B5:  BCF    0A.4
10B6:  BCF    03.5
10B7:  CALL   6B0
10B8:  BSF    0A.4
....................  
.................... 	strcpy(st, "DATA=     "); 
10B9:  BSF    03.5
10BA:  CLRF   57
10BB:  CLRF   58
10BC:  MOVLW  4A
10BD:  MOVWF  04
10BE:  MOVF   57,W
10BF:  ADDWF  04,F
10C0:  MOVF   58,W
10C1:  BCF    0A.4
10C2:  BCF    03.5
10C3:  CALL   320
10C4:  BSF    0A.4
10C5:  MOVWF  00
10C6:  IORLW  00
10C7:  BTFSC  03.2
10C8:  GOTO   0CE
10C9:  BSF    03.5
10CA:  INCF   58,F
10CB:  INCF   57,F
10CC:  GOTO   0BC
10CD:  BCF    03.5
.................... 	PrintLCD(3,10,st); 
10CE:  MOVLW  03
10CF:  BSF    03.5
10D0:  MOVWF  59
10D1:  MOVLW  0A
10D2:  MOVWF  5A
10D3:  MOVLW  4A
10D4:  MOVWF  5B
10D5:  BCF    0A.4
10D6:  BCF    03.5
10D7:  CALL   6B0
10D8:  BSF    0A.4
....................  
.................... 	printTripHystory(0); 
10D9:  BSF    03.5
10DA:  CLRF   57
10DB:  BCF    0A.4
10DC:  BSF    0A.3
10DD:  BCF    03.5
10DE:  CALL   5AF
10DF:  BSF    0A.4
10E0:  BCF    0A.3
....................  
.................... 	Cursor(0,6,CURSOR_BLINK);				 
10E1:  BSF    03.5
10E2:  CLRF   5B
10E3:  MOVLW  06
10E4:  MOVWF  5C
10E5:  MOVLW  0F
10E6:  MOVWF  5D
10E7:  BCF    0A.4
10E8:  BSF    0A.3
10E9:  BCF    03.5
10EA:  CALL   02F
10EB:  BSF    0A.4
10EC:  BCF    0A.3
....................  
.................... 	while( loopCtrl){ 
10ED:  BSF    03.5
10EE:  MOVF   54,F
10EF:  BTFSC  03.2
10F0:  GOTO   150
....................  
.................... 		KeyIn = GetKey(); 
10F1:  BCF    0A.4
10F2:  BSF    0A.3
10F3:  BCF    03.5
10F4:  CALL   000
10F5:  BSF    0A.4
10F6:  BCF    0A.3
10F7:  MOVF   78,W
10F8:  BSF    03.5
10F9:  MOVWF  53
....................  
.................... 		if( KeyIn == BTN_SET )	printTripHystory( point ); 
10FA:  MOVF   53,W
10FB:  SUBLW  07
10FC:  BTFSS  03.2
10FD:  GOTO   108
10FE:  MOVF   55,W
10FF:  MOVWF  57
1100:  BCF    0A.4
1101:  BSF    0A.3
1102:  BCF    03.5
1103:  CALL   5AF
1104:  BSF    0A.4
1105:  BCF    0A.3
.................... 		else if( KeyIn  == BTN_STOP){ 
1106:  GOTO   121
1107:  BSF    03.5
1108:  MOVF   53,W
1109:  SUBLW  02
110A:  BTFSS  03.2
110B:  GOTO   113
.................... 			machine_state = STATE_SET_MODE; 
110C:  MOVLW  03
110D:  BCF    03.5
110E:  MOVWF  2A
.................... 			loopCtrl = 0; 
110F:  BSF    03.5
1110:  CLRF   54
.................... 			return ; 
1111:  GOTO   150
.................... 		} 
.................... 		else if( KeyIn == BTN_DOWN)	point --; 
1112:  GOTO   120
1113:  MOVF   53,W
1114:  SUBLW  04
1115:  BTFSS  03.2
1116:  GOTO   119
1117:  DECF   55,F
.................... 		else if( KeyIn == BTN_UP)	point++; 
1118:  GOTO   120
1119:  MOVF   53,W
111A:  SUBLW  03
111B:  BTFSS  03.2
111C:  GOTO   11F
111D:  INCF   55,F
.................... 		else 						change = 0; 
111E:  GOTO   120
111F:  CLRF   56
1120:  BCF    03.5
....................  
.................... 		if		(point > 9) point = 0; 
1121:  BSF    03.5
1122:  BTFSC  55.7
1123:  GOTO   12A
1124:  MOVF   55,W
1125:  SUBLW  09
1126:  BTFSC  03.0
1127:  GOTO   12A
1128:  CLRF   55
.................... 		else if	(point < 0 ) point = 9; 
1129:  GOTO   12E
112A:  BTFSS  55.7
112B:  GOTO   12E
112C:  MOVLW  09
112D:  MOVWF  55
....................  
.................... 		if(change){ 
112E:  MOVF   56,F
112F:  BTFSC  03.2
1130:  GOTO   14B
.................... 			DisplayChar(0,6,point+'0'); 
1131:  MOVLW  30
1132:  ADDWF  55,W
1133:  MOVWF  57
1134:  CLRF   5E
1135:  MOVLW  06
1136:  MOVWF  5F
1137:  MOVF   57,W
1138:  MOVWF  60
1139:  BCF    0A.4
113A:  BCF    03.5
113B:  CALL   667
113C:  BSF    0A.4
.................... 			Cursor(0,6,CURSOR_BLINK);				 
113D:  BSF    03.5
113E:  CLRF   5B
113F:  MOVLW  06
1140:  MOVWF  5C
1141:  MOVLW  0F
1142:  MOVWF  5D
1143:  BCF    0A.4
1144:  BSF    0A.3
1145:  BCF    03.5
1146:  CALL   02F
1147:  BSF    0A.4
1148:  BCF    0A.3
.................... 		} 
.................... 		else change = 1; 
1149:  GOTO   14E
114A:  BSF    03.5
114B:  MOVLW  01
114C:  MOVWF  56
114D:  BCF    03.5
.................... 	} 
114E:  GOTO   0ED
114F:  BSF    03.5
.................... } 
1150:  BCF    03.5
1151:  BSF    0A.3
1152:  BSF    0A.4
1153:  GOTO   284 (RETURN)
....................  
.................... #SEPARATE 
.................... void ResetCodeDataProc()		//   
.................... { 
.................... 	BUTTON KeyIn; 
....................  
.................... 	LCD_Clear(); 
*
0F31:  MOVLW  01
0F32:  BSF    03.5
0F33:  MOVWF  5F
0F34:  BCF    0A.3
0F35:  BCF    03.5
0F36:  CALL   59C
0F37:  BSF    0A.3
.................... 	strcpy(st, " SYSTEM RESET OK?  "); 
0F38:  BSF    03.5
0F39:  CLRF   54
0F3A:  CLRF   55
0F3B:  MOVLW  4A
0F3C:  MOVWF  04
0F3D:  MOVF   54,W
0F3E:  ADDWF  04,F
0F3F:  MOVF   55,W
0F40:  BCF    0A.3
0F41:  BCF    03.5
0F42:  CALL   32F
0F43:  BSF    0A.3
0F44:  MOVWF  00
0F45:  IORLW  00
0F46:  BTFSC  03.2
0F47:  GOTO   74D
0F48:  BSF    03.5
0F49:  INCF   55,F
0F4A:  INCF   54,F
0F4B:  GOTO   73B
0F4C:  BCF    03.5
.................... 	PrintLCD(0,0,st); 
0F4D:  BSF    03.5
0F4E:  CLRF   59
0F4F:  CLRF   5A
0F50:  MOVLW  4A
0F51:  MOVWF  5B
0F52:  BCF    0A.3
0F53:  BCF    03.5
0F54:  CALL   6B0
0F55:  BSF    0A.3
.................... 	strcpy(st, " YES = PRESS [RUN]"); 
0F56:  BSF    03.5
0F57:  CLRF   54
0F58:  CLRF   55
0F59:  MOVLW  4A
0F5A:  MOVWF  04
0F5B:  MOVF   54,W
0F5C:  ADDWF  04,F
0F5D:  MOVF   55,W
0F5E:  BCF    0A.3
0F5F:  BCF    03.5
0F60:  CALL   347
0F61:  BSF    0A.3
0F62:  MOVWF  00
0F63:  IORLW  00
0F64:  BTFSC  03.2
0F65:  GOTO   76B
0F66:  BSF    03.5
0F67:  INCF   55,F
0F68:  INCF   54,F
0F69:  GOTO   759
0F6A:  BCF    03.5
.................... 	PrintLCD(2,3,st); 
0F6B:  MOVLW  02
0F6C:  BSF    03.5
0F6D:  MOVWF  59
0F6E:  MOVLW  03
0F6F:  MOVWF  5A
0F70:  MOVLW  4A
0F71:  MOVWF  5B
0F72:  BCF    0A.3
0F73:  BCF    03.5
0F74:  CALL   6B0
0F75:  BSF    0A.3
....................  
.................... 	while( 1 ){ 
.................... 		KeyIn = GetKey(); 
0F76:  CALL   000
0F77:  MOVF   78,W
0F78:  BSF    03.5
0F79:  MOVWF  53
....................  
.................... 		if( KeyIn == BTN_RUN){ 
0F7A:  DECFSZ 53,W
0F7B:  GOTO   7A2
.................... 			Lcd_Clear(); 
0F7C:  MOVLW  01
0F7D:  MOVWF  5F
0F7E:  BCF    0A.3
0F7F:  BCF    03.5
0F80:  CALL   59C
0F81:  BSF    0A.3
.................... 			Lcd_x_posi = 0, Lcd_y_posi = 0; 
0F82:  CLRF   61
0F83:  CLRF   62
.................... 			strcpy(gSciTxBuf,"9:4:902:5.000e-0");	// SYSTEM INIT 
0F84:  BSF    03.5
0F85:  CLRF   54
0F86:  CLRF   55
0F87:  MOVLW  3A
0F88:  MOVWF  04
0F89:  MOVF   54,W
0F8A:  ADDWF  04,F
0F8B:  MOVF   55,W
0F8C:  BCF    0A.3
0F8D:  BCF    03.5
0F8E:  CALL   35E
0F8F:  BSF    0A.3
0F90:  MOVWF  00
0F91:  IORLW  00
0F92:  BTFSC  03.2
0F93:  GOTO   799
0F94:  BSF    03.5
0F95:  INCF   55,F
0F96:  INCF   54,F
0F97:  GOTO   787
0F98:  BCF    03.5
.................... 			SendSciString( gSciTxBuf ); 
0F99:  MOVLW  3A
0F9A:  BSF    03.5
0F9B:  MOVWF  59
0F9C:  BCF    03.5
0F9D:  CALL   309
....................  
.................... 			machine_state = STATE_MONITOR_MODE; 
0F9E:  CLRF   2A
.................... 			return;			 
0F9F:  GOTO   7AD
.................... 		} 
.................... 		else if ( KeyIn == BTN_STOP){ 
0FA0:  GOTO   7AA
0FA1:  BSF    03.5
0FA2:  MOVF   53,W
0FA3:  SUBLW  02
0FA4:  BTFSS  03.2
0FA5:  GOTO   7AB
.................... 			machine_state = STATE_SET_MODE; 
0FA6:  MOVLW  03
0FA7:  BCF    03.5
0FA8:  MOVWF  2A
.................... 			return; 
0FA9:  GOTO   7AD
0FAA:  BSF    03.5
.................... 		} 
.................... 	} 
0FAB:  BCF    03.5
0FAC:  GOTO   776
.................... } 
0FAD:  BSF    0A.3
0FAE:  BSF    0A.4
0FAF:  GOTO   284 (RETURN)
....................  
.................... #SEPARATE 
.................... void SystemInitProc()		//   
.................... { 
.................... 	BUTTON KeyIn; 
.................... 	int loopCtrl = 1; 
*
1451:  MOVLW  01
1452:  BSF    03.5
1453:  MOVWF  54
.................... 	 
.................... 	 
.................... 	LCD_Clear(); 
1454:  MOVWF  5F
1455:  BCF    0A.4
1456:  BCF    03.5
1457:  CALL   59C
1458:  BSF    0A.4
.................... 	strcpy(st, "SYSTEM INIT OK?"); 
1459:  BSF    03.5
145A:  CLRF   55
145B:  CLRF   56
145C:  MOVLW  4A
145D:  MOVWF  04
145E:  MOVF   55,W
145F:  ADDWF  04,F
1460:  MOVF   56,W
1461:  BCF    0A.4
1462:  BCF    03.5
1463:  CALL   373
1464:  BSF    0A.4
1465:  MOVWF  00
1466:  IORLW  00
1467:  BTFSC  03.2
1468:  GOTO   46E
1469:  BSF    03.5
146A:  INCF   56,F
146B:  INCF   55,F
146C:  GOTO   45C
146D:  BCF    03.5
.................... 	PrintLCD(0,0,st); 
146E:  BSF    03.5
146F:  CLRF   59
1470:  CLRF   5A
1471:  MOVLW  4A
1472:  MOVWF  5B
1473:  BCF    0A.4
1474:  BCF    03.5
1475:  CALL   6B0
1476:  BSF    0A.4
.................... 	strcpy(st, "PRESS RUN RESET"); 
1477:  BSF    03.5
1478:  CLRF   55
1479:  CLRF   56
147A:  MOVLW  4A
147B:  MOVWF  04
147C:  MOVF   55,W
147D:  ADDWF  04,F
147E:  MOVF   56,W
147F:  BCF    0A.4
1480:  BCF    03.5
1481:  CALL   387
1482:  BSF    0A.4
1483:  MOVWF  00
1484:  IORLW  00
1485:  BTFSC  03.2
1486:  GOTO   48C
1487:  BSF    03.5
1488:  INCF   56,F
1489:  INCF   55,F
148A:  GOTO   47A
148B:  BCF    03.5
.................... 	PrintLCD(2,3,st); 
148C:  MOVLW  02
148D:  BSF    03.5
148E:  MOVWF  59
148F:  MOVLW  03
1490:  MOVWF  5A
1491:  MOVLW  4A
1492:  MOVWF  5B
1493:  BCF    0A.4
1494:  BCF    03.5
1495:  CALL   6B0
1496:  BSF    0A.4
....................  
.................... 	while( loopCtrl ){ 
1497:  BSF    03.5
1498:  MOVF   54,F
1499:  BTFSC  03.2
149A:  GOTO   4DB
.................... 		KeyIn = GetKey(); 
149B:  BCF    0A.4
149C:  BSF    0A.3
149D:  BCF    03.5
149E:  CALL   000
149F:  BSF    0A.4
14A0:  BCF    0A.3
14A1:  MOVF   78,W
14A2:  BSF    03.5
14A3:  MOVWF  53
....................  
.................... 		if( KeyIn == BTN_RUN){ 
14A4:  DECFSZ 53,W
14A5:  GOTO   4D1
.................... 			Lcd_Clear(); 
14A6:  MOVLW  01
14A7:  MOVWF  5F
14A8:  BCF    0A.4
14A9:  BCF    03.5
14AA:  CALL   59C
14AB:  BSF    0A.4
.................... 			Lcd_x_posi = 0, Lcd_y_posi = 0; 
14AC:  CLRF   61
14AD:  CLRF   62
.................... 			strcpy(gSciTxBuf,"9:4:902:5.000e-0");	// SYSTEM TRDRY 
14AE:  BSF    03.5
14AF:  CLRF   55
14B0:  CLRF   56
14B1:  MOVLW  3A
14B2:  MOVWF  04
14B3:  MOVF   55,W
14B4:  ADDWF  04,F
14B5:  MOVF   56,W
14B6:  BCF    0A.4
14B7:  BCF    03.5
14B8:  CALL   35E
14B9:  BSF    0A.4
14BA:  MOVWF  00
14BB:  IORLW  00
14BC:  BTFSC  03.2
14BD:  GOTO   4C3
14BE:  BSF    03.5
14BF:  INCF   56,F
14C0:  INCF   55,F
14C1:  GOTO   4B1
14C2:  BCF    03.5
.................... 			SendSciString( gSciTxBuf ); 
14C3:  MOVLW  3A
14C4:  BSF    03.5
14C5:  MOVWF  59
14C6:  BCF    0A.4
14C7:  BSF    0A.3
14C8:  BCF    03.5
14C9:  CALL   309
14CA:  BSF    0A.4
14CB:  BCF    0A.3
.................... 			machine_state = STATE_EDIT_MODE; 
14CC:  MOVLW  01
14CD:  MOVWF  2A
.................... 			return; 
14CE:  GOTO   4DC
.................... 			 
.................... 		} 
.................... 		else if ( KeyIn == BTN_STOP){ 
14CF:  GOTO   4D9
14D0:  BSF    03.5
14D1:  MOVF   53,W
14D2:  SUBLW  02
14D3:  BTFSS  03.2
14D4:  GOTO   4DA
.................... 			machine_state = STATE_EDIT_MODE; 
14D5:  MOVLW  01
14D6:  BCF    03.5
14D7:  MOVWF  2A
.................... 			return; 
14D8:  GOTO   4DC
14D9:  BSF    03.5
.................... 		} 
.................... 	} 
14DA:  GOTO   498
14DB:  BCF    03.5
.................... } 
14DC:  BSF    0A.3
14DD:  BSF    0A.4
14DE:  GOTO   284 (RETURN)
....................  
....................  
.................... const char DATE_POS[12] ={2,3,5,6,9,10,12,13,15,16,18,19}; 
....................  
....................  
.................... #SEPARATE 
.................... void TimeDataSetProc()			//   
.................... { 
.................... 	BUTTON KeyIn; 
.................... 	char ChangeCode = 0; 
*
1154:  BSF    03.5
1155:  CLRF   54
.................... 	int loopCtrl = 1; 
1156:  MOVLW  01
1157:  MOVWF  55
.................... 	signed int point=0; 
1158:  CLRF   56
.................... 	int i; 
....................  
.................... 	machine_state = STATE_TIME_MODE; 
1159:  MOVLW  05
115A:  BCF    03.5
115B:  MOVWF  2A
.................... 	LCD_Clear(); 
115C:  MOVLW  01
115D:  BSF    03.5
115E:  MOVWF  5F
115F:  BCF    0A.4
1160:  BCF    03.5
1161:  CALL   59C
1162:  BSF    0A.4
.................... 	strcpy(st, "DATE & TIME SETTING "); 
1163:  BSF    03.5
1164:  CLRF   58
1165:  CLRF   59
1166:  MOVLW  4A
1167:  MOVWF  04
1168:  MOVF   58,W
1169:  ADDWF  04,F
116A:  MOVF   59,W
116B:  BCF    0A.4
116C:  BCF    03.5
116D:  CALL   3AB
116E:  BSF    0A.4
116F:  MOVWF  00
1170:  IORLW  00
1171:  BTFSC  03.2
1172:  GOTO   178
1173:  BSF    03.5
1174:  INCF   59,F
1175:  INCF   58,F
1176:  GOTO   166
1177:  BCF    03.5
.................... 	PrintLCD(0,0,st); 
1178:  BSF    03.5
1179:  CLRF   59
117A:  CLRF   5A
117B:  MOVLW  4A
117C:  MOVWF  5B
117D:  BCF    0A.4
117E:  BCF    03.5
117F:  CALL   6B0
1180:  BSF    0A.4
....................  
.................... 	strcpy(gSciTxBuf,"9:4:906:0.000e-0"); 
1181:  BSF    03.5
1182:  CLRF   58
1183:  CLRF   59
1184:  MOVLW  3A
1185:  MOVWF  04
1186:  MOVF   58,W
1187:  ADDWF  04,F
1188:  MOVF   59,W
1189:  BCF    0A.4
118A:  BCF    03.5
118B:  CALL   3C4
118C:  BSF    0A.4
118D:  MOVWF  00
118E:  IORLW  00
118F:  BTFSC  03.2
1190:  GOTO   196
1191:  BSF    03.5
1192:  INCF   59,F
1193:  INCF   58,F
1194:  GOTO   184
1195:  BCF    03.5
.................... 	SendSciString( gSciTxBuf ); 
1196:  MOVLW  3A
1197:  BSF    03.5
1198:  MOVWF  59
1199:  BCF    0A.4
119A:  BSF    0A.3
119B:  BCF    03.5
119C:  CALL   309
119D:  BSF    0A.4
119E:  BCF    0A.3
.................... 	sci_rx_msg_start = sci_rx_msg_end = 0; 
119F:  CLRF   65
11A0:  MOVF   65,W
11A1:  MOVWF  64
.................... 	delay_ms(100);  
11A2:  MOVLW  64
11A3:  BSF    03.5
11A4:  MOVWF  65
11A5:  BCF    0A.4
11A6:  BCF    03.5
11A7:  CALL   587
11A8:  BSF    0A.4
.................... 	delay_ms(100);  
11A9:  MOVLW  64
11AA:  BSF    03.5
11AB:  MOVWF  65
11AC:  BCF    0A.4
11AD:  BCF    03.5
11AE:  CALL   587
11AF:  BSF    0A.4
.................... 	getSciMsg(st); printLCD(1,0,st); 
11B0:  MOVLW  4A
11B1:  BSF    03.5
11B2:  MOVWF  59
11B3:  BCF    0A.4
11B4:  BSF    0A.3
11B5:  BCF    03.5
11B6:  CALL   321
11B7:  BSF    0A.4
11B8:  BCF    0A.3
11B9:  MOVLW  01
11BA:  BSF    03.5
11BB:  MOVWF  59
11BC:  CLRF   5A
11BD:  MOVLW  4A
11BE:  MOVWF  5B
11BF:  BCF    0A.4
11C0:  BCF    03.5
11C1:  CALL   6B0
11C2:  BSF    0A.4
.................... 	printLCD(3,0,st); 
11C3:  MOVLW  03
11C4:  BSF    03.5
11C5:  MOVWF  59
11C6:  CLRF   5A
11C7:  MOVLW  4A
11C8:  MOVWF  5B
11C9:  BCF    0A.4
11CA:  BCF    03.5
11CB:  CALL   6B0
11CC:  BSF    0A.4
....................  
.................... 	for( i = 0; i< 12 ; i++ ) Code[i] = st[ DATE_POS[i]]; 
11CD:  BSF    03.5
11CE:  CLRF   57
11CF:  MOVF   57,W
11D0:  SUBLW  0B
11D1:  BTFSS  03.0
11D2:  GOTO   1E6
11D3:  MOVLW  2E
11D4:  ADDWF  57,W
11D5:  MOVWF  58
11D6:  MOVF   57,W
11D7:  BCF    0A.4
11D8:  BCF    03.5
11D9:  CALL   39B
11DA:  BSF    0A.4
11DB:  ADDLW  4A
11DC:  MOVWF  04
11DD:  MOVF   00,W
11DE:  BSF    03.5
11DF:  MOVWF  5A
11E0:  MOVF   58,W
11E1:  MOVWF  04
11E2:  MOVF   5A,W
11E3:  MOVWF  00
11E4:  INCF   57,F
11E5:  GOTO   1CF
.................... 	Cursor(3,DATE_POS[point],DISPLAY_CURSE_BLINK_ON); 
11E6:  MOVF   56,W
11E7:  BCF    0A.4
11E8:  BCF    03.5
11E9:  CALL   39B
11EA:  BSF    0A.4
11EB:  BSF    03.5
11EC:  MOVWF  58
11ED:  MOVLW  03
11EE:  MOVWF  5B
11EF:  MOVF   58,W
11F0:  MOVWF  5C
11F1:  MOVLW  0F
11F2:  MOVWF  5D
11F3:  BCF    0A.4
11F4:  BSF    0A.3
11F5:  BCF    03.5
11F6:  CALL   02F
11F7:  BSF    0A.4
11F8:  BCF    0A.3
.................... 	 
.................... 	while(loopCtrl){ 
11F9:  BSF    03.5
11FA:  MOVF   55,F
11FB:  BTFSC  03.2
11FC:  GOTO   3AA
....................  
.................... 		ChangeCode = 1; 
11FD:  MOVLW  01
11FE:  MOVWF  54
....................  
.................... 		KeyIn = GetKey(); 
11FF:  BCF    0A.4
1200:  BSF    0A.3
1201:  BCF    03.5
1202:  CALL   000
1203:  BSF    0A.4
1204:  BCF    0A.3
1205:  MOVF   78,W
1206:  BSF    03.5
1207:  MOVWF  53
....................  
.................... 		if		( KeyIn == BTN_UP  ) (Code[point])++; 
1208:  MOVF   53,W
1209:  SUBLW  03
120A:  BTFSS  03.2
120B:  GOTO   211
120C:  MOVLW  2E
120D:  ADDWF  56,W
120E:  MOVWF  04
120F:  INCF   00,F
.................... 		else if ( KeyIn == BTN_DOWN) (Code[point])--; 
1210:  GOTO   355
1211:  MOVF   53,W
1212:  SUBLW  04
1213:  BTFSS  03.2
1214:  GOTO   21A
1215:  MOVLW  2E
1216:  ADDWF  56,W
1217:  MOVWF  04
1218:  DECF   00,F
.................... 		else if ( KeyIn == BTN_ESC)		point--; 
1219:  GOTO   355
121A:  MOVF   53,W
121B:  SUBLW  06
121C:  BTFSS  03.2
121D:  GOTO   220
121E:  DECF   56,F
.................... 		else if	(KeyIn == BTN_RIGHT) 	point ++; 
121F:  GOTO   355
1220:  MOVF   53,W
1221:  SUBLW  05
1222:  BTFSS  03.2
1223:  GOTO   226
1224:  INCF   56,F
.................... 		else if ( KeyIn == BTN_STOP){ 
1225:  GOTO   355
1226:  MOVF   53,W
1227:  SUBLW  02
1228:  BTFSS  03.2
1229:  GOTO   230
.................... 			machine_state = STATE_SET_MODE; 
122A:  MOVLW  03
122B:  BCF    03.5
122C:  MOVWF  2A
.................... 			return; 
122D:  GOTO   3AB
.................... 		} 
.................... 		else if ( KeyIn == BTN_SAVE){ 
122E:  GOTO   356
122F:  BSF    03.5
1230:  MOVF   53,W
1231:  SUBLW  08
1232:  BTFSS  03.2
1233:  GOTO   2D7
....................  
.................... 			strcpy(gSciTxBuf,"9:4:904:0."); 
1234:  CLRF   58
1235:  CLRF   59
1236:  MOVLW  3A
1237:  MOVWF  04
1238:  MOVF   58,W
1239:  ADDWF  04,F
123A:  MOVF   59,W
123B:  BCF    0A.4
123C:  BCF    03.5
123D:  CALL   3D9
123E:  BSF    0A.4
123F:  MOVWF  00
1240:  IORLW  00
1241:  BTFSC  03.2
1242:  GOTO   248
1243:  BSF    03.5
1244:  INCF   59,F
1245:  INCF   58,F
1246:  GOTO   236
1247:  BCF    03.5
.................... 			strcpy(&(gSciTxBuf[10]),Code); 
1248:  MOVLW  2E
1249:  BSF    03.5
124A:  MOVWF  59
124B:  MOVLW  44
124C:  MOVWF  58
124D:  MOVF   59,W
124E:  MOVWF  04
124F:  MOVF   00,W
1250:  MOVWF  5A
1251:  MOVF   58,W
1252:  MOVWF  04
1253:  MOVF   5A,W
1254:  MOVWF  00
1255:  MOVF   00,F
1256:  BTFSC  03.2
1257:  GOTO   25B
1258:  INCF   58,F
1259:  INCF   59,F
125A:  GOTO   24D
.................... 			SendSciString( gSciTxBuf ); 
125B:  MOVLW  3A
125C:  MOVWF  59
125D:  BCF    0A.4
125E:  BSF    0A.3
125F:  BCF    03.5
1260:  CALL   309
1261:  BSF    0A.4
1262:  BCF    0A.3
.................... 			delay_ms(50); 
1263:  MOVLW  32
1264:  BSF    03.5
1265:  MOVWF  65
1266:  BCF    0A.4
1267:  BCF    03.5
1268:  CALL   587
1269:  BSF    0A.4
....................  
.................... 			strcpy(gSciTxBuf,"9:4:904:1."); 
126A:  BSF    03.5
126B:  CLRF   58
126C:  CLRF   59
126D:  MOVLW  3A
126E:  MOVWF  04
126F:  MOVF   58,W
1270:  ADDWF  04,F
1271:  MOVF   59,W
1272:  BCF    0A.4
1273:  BCF    03.5
1274:  CALL   3E8
1275:  BSF    0A.4
1276:  MOVWF  00
1277:  IORLW  00
1278:  BTFSC  03.2
1279:  GOTO   27F
127A:  BSF    03.5
127B:  INCF   59,F
127C:  INCF   58,F
127D:  GOTO   26D
127E:  BCF    03.5
.................... 			strcpy(&(gSciTxBuf[10]),&Code[6]); 
127F:  MOVLW  34
1280:  BSF    03.5
1281:  MOVWF  59
1282:  MOVLW  44
1283:  MOVWF  58
1284:  MOVF   59,W
1285:  MOVWF  04
1286:  MOVF   00,W
1287:  MOVWF  5A
1288:  MOVF   58,W
1289:  MOVWF  04
128A:  MOVF   5A,W
128B:  MOVWF  00
128C:  MOVF   00,F
128D:  BTFSC  03.2
128E:  GOTO   292
128F:  INCF   58,F
1290:  INCF   59,F
1291:  GOTO   284
.................... 			SendSciString( gSciTxBuf ); 
1292:  MOVLW  3A
1293:  MOVWF  59
1294:  BCF    0A.4
1295:  BSF    0A.3
1296:  BCF    03.5
1297:  CALL   309
1298:  BSF    0A.4
1299:  BCF    0A.3
.................... 			strcpy(gSciTxBuf,"9:4:906:0.000e-0"); 
129A:  BSF    03.5
129B:  CLRF   58
129C:  CLRF   59
129D:  MOVLW  3A
129E:  MOVWF  04
129F:  MOVF   58,W
12A0:  ADDWF  04,F
12A1:  MOVF   59,W
12A2:  BCF    0A.4
12A3:  BCF    03.5
12A4:  CALL   3C4
12A5:  BSF    0A.4
12A6:  MOVWF  00
12A7:  IORLW  00
12A8:  BTFSC  03.2
12A9:  GOTO   2AF
12AA:  BSF    03.5
12AB:  INCF   59,F
12AC:  INCF   58,F
12AD:  GOTO   29D
12AE:  BCF    03.5
.................... 			SendSciString( gSciTxBuf ); 
12AF:  MOVLW  3A
12B0:  BSF    03.5
12B1:  MOVWF  59
12B2:  BCF    0A.4
12B3:  BSF    0A.3
12B4:  BCF    03.5
12B5:  CALL   309
12B6:  BSF    0A.4
12B7:  BCF    0A.3
....................  
.................... 			sci_rx_msg_start = sci_rx_msg_end = 0; 
12B8:  CLRF   65
12B9:  MOVF   65,W
12BA:  MOVWF  64
.................... 			delay_ms(50); getSciMsg(st); printLCD(1,0,st); 
12BB:  MOVLW  32
12BC:  BSF    03.5
12BD:  MOVWF  65
12BE:  BCF    0A.4
12BF:  BCF    03.5
12C0:  CALL   587
12C1:  BSF    0A.4
12C2:  MOVLW  4A
12C3:  BSF    03.5
12C4:  MOVWF  59
12C5:  BCF    0A.4
12C6:  BSF    0A.3
12C7:  BCF    03.5
12C8:  CALL   321
12C9:  BSF    0A.4
12CA:  BCF    0A.3
12CB:  MOVLW  01
12CC:  BSF    03.5
12CD:  MOVWF  59
12CE:  CLRF   5A
12CF:  MOVLW  4A
12D0:  MOVWF  5B
12D1:  BCF    0A.4
12D2:  BCF    03.5
12D3:  CALL   6B0
12D4:  BSF    0A.4
.................... 		} 
.................... 		else if ( KeyIn == BTN_SET){ 
12D5:  GOTO   356
12D6:  BSF    03.5
12D7:  MOVF   53,W
12D8:  SUBLW  07
12D9:  BTFSS  03.2
12DA:  GOTO   354
.................... 			strcpy(gSciTxBuf,"9:4:906:0.000e-0"); 
12DB:  CLRF   58
12DC:  CLRF   59
12DD:  MOVLW  3A
12DE:  MOVWF  04
12DF:  MOVF   58,W
12E0:  ADDWF  04,F
12E1:  MOVF   59,W
12E2:  BCF    0A.4
12E3:  BCF    03.5
12E4:  CALL   3C4
12E5:  BSF    0A.4
12E6:  MOVWF  00
12E7:  IORLW  00
12E8:  BTFSC  03.2
12E9:  GOTO   2EF
12EA:  BSF    03.5
12EB:  INCF   59,F
12EC:  INCF   58,F
12ED:  GOTO   2DD
12EE:  BCF    03.5
.................... 			SendSciString( gSciTxBuf ); 
12EF:  MOVLW  3A
12F0:  BSF    03.5
12F1:  MOVWF  59
12F2:  BCF    0A.4
12F3:  BSF    0A.3
12F4:  BCF    03.5
12F5:  CALL   309
12F6:  BSF    0A.4
12F7:  BCF    0A.3
.................... 			sci_rx_msg_start = sci_rx_msg_end = 0; 
12F8:  CLRF   65
12F9:  MOVF   65,W
12FA:  MOVWF  64
.................... 			delay_ms(100);  
12FB:  MOVLW  64
12FC:  BSF    03.5
12FD:  MOVWF  65
12FE:  BCF    0A.4
12FF:  BCF    03.5
1300:  CALL   587
1301:  BSF    0A.4
.................... 			delay_ms(100);  
1302:  MOVLW  64
1303:  BSF    03.5
1304:  MOVWF  65
1305:  BCF    0A.4
1306:  BCF    03.5
1307:  CALL   587
1308:  BSF    0A.4
.................... 			getSciMsg(st); printLCD(1,0,st); 
1309:  MOVLW  4A
130A:  BSF    03.5
130B:  MOVWF  59
130C:  BCF    0A.4
130D:  BSF    0A.3
130E:  BCF    03.5
130F:  CALL   321
1310:  BSF    0A.4
1311:  BCF    0A.3
1312:  MOVLW  01
1313:  BSF    03.5
1314:  MOVWF  59
1315:  CLRF   5A
1316:  MOVLW  4A
1317:  MOVWF  5B
1318:  BCF    0A.4
1319:  BCF    03.5
131A:  CALL   6B0
131B:  BSF    0A.4
.................... 			printLCD(3,0,st); 
131C:  MOVLW  03
131D:  BSF    03.5
131E:  MOVWF  59
131F:  CLRF   5A
1320:  MOVLW  4A
1321:  MOVWF  5B
1322:  BCF    0A.4
1323:  BCF    03.5
1324:  CALL   6B0
1325:  BSF    0A.4
.................... 		 
.................... 			for( i = 0; i< 12 ; i++ ) Code[i] = st[ DATE_POS[i]]; 
1326:  BSF    03.5
1327:  CLRF   57
1328:  MOVF   57,W
1329:  SUBLW  0B
132A:  BTFSS  03.0
132B:  GOTO   33F
132C:  MOVLW  2E
132D:  ADDWF  57,W
132E:  MOVWF  58
132F:  MOVF   57,W
1330:  BCF    0A.4
1331:  BCF    03.5
1332:  CALL   39B
1333:  BSF    0A.4
1334:  ADDLW  4A
1335:  MOVWF  04
1336:  MOVF   00,W
1337:  BSF    03.5
1338:  MOVWF  5A
1339:  MOVF   58,W
133A:  MOVWF  04
133B:  MOVF   5A,W
133C:  MOVWF  00
133D:  INCF   57,F
133E:  GOTO   328
.................... 			Cursor(3,DATE_POS[point],DISPLAY_CURSE_BLINK_ON); 
133F:  MOVF   56,W
1340:  BCF    0A.4
1341:  BCF    03.5
1342:  CALL   39B
1343:  BSF    0A.4
1344:  BSF    03.5
1345:  MOVWF  58
1346:  MOVLW  03
1347:  MOVWF  5B
1348:  MOVF   58,W
1349:  MOVWF  5C
134A:  MOVLW  0F
134B:  MOVWF  5D
134C:  BCF    0A.4
134D:  BSF    0A.3
134E:  BCF    03.5
134F:  CALL   02F
1350:  BSF    0A.4
1351:  BCF    0A.3
.................... 		} 
.................... 		else ChangeCode = 0; 
1352:  GOTO   356
1353:  BSF    03.5
1354:  CLRF   54
1355:  BCF    03.5
....................  
.................... 		if		(point > 11) 	point = 0; 
1356:  BSF    03.5
1357:  BTFSC  56.7
1358:  GOTO   35F
1359:  MOVF   56,W
135A:  SUBLW  0B
135B:  BTFSC  03.0
135C:  GOTO   35F
135D:  CLRF   56
.................... 		else if (point < 0 )	point = 11; 
135E:  GOTO   363
135F:  BTFSS  56.7
1360:  GOTO   363
1361:  MOVLW  0B
1362:  MOVWF  56
.................... 	 
.................... 		if		(Code[point] > '9') Code[point] = '0'; 
1363:  MOVLW  2E
1364:  ADDWF  56,W
1365:  MOVWF  04
1366:  MOVF   00,W
1367:  SUBLW  39
1368:  BTFSC  03.0
1369:  GOTO   370
136A:  MOVLW  2E
136B:  ADDWF  56,W
136C:  MOVWF  04
136D:  MOVLW  30
136E:  MOVWF  00
.................... 		else if	(Code[point] < '0') Code[point] = '9'; 
136F:  GOTO   37C
1370:  MOVLW  2E
1371:  ADDWF  56,W
1372:  MOVWF  04
1373:  MOVF   00,W
1374:  SUBLW  2F
1375:  BTFSS  03.0
1376:  GOTO   37C
1377:  MOVLW  2E
1378:  ADDWF  56,W
1379:  MOVWF  04
137A:  MOVLW  39
137B:  MOVWF  00
.................... 	 
.................... 		if(ChangeCode == 1) 
137C:  DECFSZ 54,W
137D:  GOTO   3A9
.................... 		{ 
.................... 			DisplayChar(3,DATE_POS[point],Code[point]); 
137E:  MOVF   56,W
137F:  BCF    0A.4
1380:  BCF    03.5
1381:  CALL   39B
1382:  BSF    0A.4
1383:  BSF    03.5
1384:  MOVWF  58
1385:  MOVLW  2E
1386:  ADDWF  56,W
1387:  MOVWF  04
1388:  MOVF   00,W
1389:  MOVWF  59
138A:  MOVLW  03
138B:  MOVWF  5E
138C:  MOVF   58,W
138D:  MOVWF  5F
138E:  MOVF   59,W
138F:  MOVWF  60
1390:  BCF    0A.4
1391:  BCF    03.5
1392:  CALL   667
1393:  BSF    0A.4
.................... 			Cursor(3,DATE_POS[point],DISPLAY_CURSE_BLINK_ON); 
1394:  BSF    03.5
1395:  MOVF   56,W
1396:  BCF    0A.4
1397:  BCF    03.5
1398:  CALL   39B
1399:  BSF    0A.4
139A:  BSF    03.5
139B:  MOVWF  58
139C:  MOVLW  03
139D:  MOVWF  5B
139E:  MOVF   58,W
139F:  MOVWF  5C
13A0:  MOVLW  0F
13A1:  MOVWF  5D
13A2:  BCF    0A.4
13A3:  BSF    0A.3
13A4:  BCF    03.5
13A5:  CALL   02F
13A6:  BSF    0A.4
13A7:  BCF    0A.3
13A8:  BSF    03.5
.................... 		} 
.................... 	} 
13A9:  GOTO   1FA
13AA:  BCF    03.5
.................... } 
13AB:  BSF    0A.3
13AC:  BSF    0A.4
13AD:  GOTO   284 (RETURN)
....................  
.................... #SEPARATE 
.................... void RecordClearProc()		// Trip Record All Clear 
.................... { 
.................... 	BUTTON KeyIn; 
.................... 	int loopCtrl =1; 
13AE:  MOVLW  01
13AF:  BSF    03.5
13B0:  MOVWF  54
....................  
.................... 	strcpy(st, " REC CLEAR ALL! OK? "); 
13B1:  CLRF   55
13B2:  CLRF   56
13B3:  MOVLW  4A
13B4:  MOVWF  04
13B5:  MOVF   55,W
13B6:  ADDWF  04,F
13B7:  MOVF   56,W
13B8:  BCF    0A.4
13B9:  BCF    03.5
13BA:  CALL   3F7
13BB:  BSF    0A.4
13BC:  MOVWF  00
13BD:  IORLW  00
13BE:  BTFSC  03.2
13BF:  GOTO   3C5
13C0:  BSF    03.5
13C1:  INCF   56,F
13C2:  INCF   55,F
13C3:  GOTO   3B3
13C4:  BCF    03.5
.................... 	PrintLCD(0,0,st); 
13C5:  BSF    03.5
13C6:  CLRF   59
13C7:  CLRF   5A
13C8:  MOVLW  4A
13C9:  MOVWF  5B
13CA:  BCF    0A.4
13CB:  BCF    03.5
13CC:  CALL   6B0
13CD:  BSF    0A.4
.................... 	strcpy(st, " YES     NO     "); 
13CE:  BSF    03.5
13CF:  CLRF   55
13D0:  CLRF   56
13D1:  MOVLW  4A
13D2:  MOVWF  04
13D3:  MOVF   55,W
13D4:  ADDWF  04,F
13D5:  MOVF   56,W
13D6:  BCF    0A.4
13D7:  BCF    03.5
13D8:  CALL   413
13D9:  BSF    0A.4
13DA:  MOVWF  00
13DB:  IORLW  00
13DC:  BTFSC  03.2
13DD:  GOTO   3E3
13DE:  BSF    03.5
13DF:  INCF   56,F
13E0:  INCF   55,F
13E1:  GOTO   3D1
13E2:  BCF    03.5
.................... 	PrintLCD(2,3,st); 
13E3:  MOVLW  02
13E4:  BSF    03.5
13E5:  MOVWF  59
13E6:  MOVLW  03
13E7:  MOVWF  5A
13E8:  MOVLW  4A
13E9:  MOVWF  5B
13EA:  BCF    0A.4
13EB:  BCF    03.5
13EC:  CALL   6B0
13ED:  BSF    0A.4
....................  
.................... 	while(loopCtrl){ 
13EE:  BSF    03.5
13EF:  MOVF   54,F
13F0:  BTFSC  03.2
13F1:  GOTO   44D
.................... 		KeyIn = GetKey(); 
13F2:  BCF    0A.4
13F3:  BSF    0A.3
13F4:  BCF    03.5
13F5:  CALL   000
13F6:  BSF    0A.4
13F7:  BCF    0A.3
13F8:  MOVF   78,W
13F9:  BSF    03.5
13FA:  MOVWF  53
.................... 		if( KeyIn == BTN_RUN){ 
13FB:  DECFSZ 53,W
13FC:  GOTO   443
.................... 			Lcd_x_posi = 0; 
13FD:  BCF    03.5
13FE:  CLRF   61
.................... 			Lcd_y_posi = 0; 
13FF:  CLRF   62
.................... 			Lcd_Clear(); 
1400:  MOVLW  01
1401:  BSF    03.5
1402:  MOVWF  5F
1403:  BCF    0A.4
1404:  BCF    03.5
1405:  CALL   59C
1406:  BSF    0A.4
.................... 			strcpy(Trip_Message, "                    "); 
1407:  BSF    03.5
1408:  CLRF   55
1409:  CLRF   56
140A:  MOVLW  BE
140B:  MOVWF  04
140C:  MOVF   55,W
140D:  ADDWF  04,F
140E:  MOVF   56,W
140F:  BCF    0A.4
1410:  BCF    03.5
1411:  CALL   03E
1412:  BSF    0A.4
1413:  MOVWF  00
1414:  IORLW  00
1415:  BTFSC  03.2
1416:  GOTO   41C
1417:  BSF    03.5
1418:  INCF   56,F
1419:  INCF   55,F
141A:  GOTO   40A
141B:  BCF    03.5
.................... 			strcpy(gSciTxBuf,"9:4:904:2.000e-0"); 
141C:  BSF    03.5
141D:  CLRF   55
141E:  CLRF   56
141F:  MOVLW  3A
1420:  MOVWF  04
1421:  MOVF   55,W
1422:  ADDWF  04,F
1423:  MOVF   56,W
1424:  BCF    0A.4
1425:  BCF    03.5
1426:  CALL   428
1427:  BSF    0A.4
1428:  MOVWF  00
1429:  IORLW  00
142A:  BTFSC  03.2
142B:  GOTO   431
142C:  BSF    03.5
142D:  INCF   56,F
142E:  INCF   55,F
142F:  GOTO   41F
1430:  BCF    03.5
.................... 			SendSciString( gSciTxBuf ); 
1431:  MOVLW  3A
1432:  BSF    03.5
1433:  MOVWF  59
1434:  BCF    0A.4
1435:  BSF    0A.3
1436:  BCF    03.5
1437:  CALL   309
1438:  BSF    0A.4
1439:  BCF    0A.3
.................... 			delay_ms(50); 
143A:  MOVLW  32
143B:  BSF    03.5
143C:  MOVWF  65
143D:  BCF    0A.4
143E:  BCF    03.5
143F:  CALL   587
1440:  BSF    0A.4
.................... 		} 
.................... 		else if ( KeyIn == BTN_STOP){ 
1441:  GOTO   44B
1442:  BSF    03.5
1443:  MOVF   53,W
1444:  SUBLW  02
1445:  BTFSS  03.2
1446:  GOTO   44C
.................... 			machine_state = STATE_EDIT_MODE; 
1447:  MOVLW  01
1448:  BCF    03.5
1449:  MOVWF  2A
.................... 			return; 
144A:  GOTO   44E
144B:  BSF    03.5
.................... 		} 
.................... 	} 
144C:  GOTO   3EF
144D:  BCF    03.5
.................... } 
144E:  BSF    0A.3
144F:  BSF    0A.4
1450:  GOTO   284 (RETURN)
....................  
.................... void CheckSumErrorProc() 
.................... { 
.................... 	BUTTON KeyIn; 
.................... 	int loopCtrl =1; 
*
18ED:  MOVLW  01
18EE:  BSF    03.5
18EF:  MOVWF  54
.................... 	strcpy(st, " BACKUP RESTORE OK?"); 
18F0:  CLRF   55
18F1:  CLRF   56
18F2:  MOVLW  4A
18F3:  MOVWF  04
18F4:  MOVF   55,W
18F5:  ADDWF  04,F
18F6:  MOVF   56,W
18F7:  BCF    0A.4
18F8:  BCF    0A.3
18F9:  BCF    03.5
18FA:  CALL   43D
18FB:  BSF    0A.4
18FC:  BSF    0A.3
18FD:  MOVWF  00
18FE:  IORLW  00
18FF:  BTFSC  03.2
1900:  GOTO   106
1901:  BSF    03.5
1902:  INCF   56,F
1903:  INCF   55,F
1904:  GOTO   0F2
1905:  BCF    03.5
.................... 	strcpy(st, " INIT RESTORE OK?  "); 
1906:  BSF    03.5
1907:  CLRF   55
1908:  CLRF   56
1909:  MOVLW  4A
190A:  MOVWF  04
190B:  MOVF   55,W
190C:  ADDWF  04,F
190D:  MOVF   56,W
190E:  BCF    0A.4
190F:  BCF    0A.3
1910:  BCF    03.5
1911:  CALL   455
1912:  BSF    0A.4
1913:  BSF    0A.3
1914:  MOVWF  00
1915:  IORLW  00
1916:  BTFSC  03.2
1917:  GOTO   11D
1918:  BSF    03.5
1919:  INCF   56,F
191A:  INCF   55,F
191B:  GOTO   109
191C:  BCF    03.5
.................... 	PrintLCD(0,0,st); 
191D:  BSF    03.5
191E:  CLRF   59
191F:  CLRF   5A
1920:  MOVLW  4A
1921:  MOVWF  5B
1922:  BCF    0A.4
1923:  BCF    0A.3
1924:  BCF    03.5
1925:  CALL   6B0
1926:  BSF    0A.4
1927:  BSF    0A.3
.................... 	strcpy(st, " YES     NO     "); 
1928:  BSF    03.5
1929:  CLRF   55
192A:  CLRF   56
192B:  MOVLW  4A
192C:  MOVWF  04
192D:  MOVF   55,W
192E:  ADDWF  04,F
192F:  MOVF   56,W
1930:  BCF    0A.4
1931:  BCF    0A.3
1932:  BCF    03.5
1933:  CALL   413
1934:  BSF    0A.4
1935:  BSF    0A.3
1936:  MOVWF  00
1937:  IORLW  00
1938:  BTFSC  03.2
1939:  GOTO   13F
193A:  BSF    03.5
193B:  INCF   56,F
193C:  INCF   55,F
193D:  GOTO   12B
193E:  BCF    03.5
.................... 	PrintLCD(2,3,st); 
193F:  MOVLW  02
1940:  BSF    03.5
1941:  MOVWF  59
1942:  MOVLW  03
1943:  MOVWF  5A
1944:  MOVLW  4A
1945:  MOVWF  5B
1946:  BCF    0A.4
1947:  BCF    0A.3
1948:  BCF    03.5
1949:  CALL   6B0
194A:  BSF    0A.4
194B:  BSF    0A.3
....................  
.................... 	while(loopCtrl){ 
194C:  BSF    03.5
194D:  MOVF   54,F
194E:  BTFSC  03.2
194F:  GOTO   275
.................... 		KeyIn = GetKey(); 
1950:  BCF    0A.4
1951:  BCF    03.5
1952:  CALL   000
1953:  BSF    0A.4
1954:  MOVF   78,W
1955:  BSF    03.5
1956:  MOVWF  53
....................  
.................... 		if ( KeyIn == BTN_ESC){ 
1957:  MOVF   53,W
1958:  SUBLW  06
1959:  BTFSS  03.2
195A:  GOTO   18D
.................... 			if(Flag_Set == 1 && Flag_Start == 1)		DisplayChar(2, Flag_Set + 1, ' ' ); 
195B:  BCF    03.5
195C:  DECFSZ 67,W
195D:  GOTO   171
195E:  DECFSZ 68,W
195F:  GOTO   171
1960:  MOVLW  01
1961:  ADDWF  67,W
1962:  BSF    03.5
1963:  MOVWF  55
1964:  MOVLW  02
1965:  MOVWF  5E
1966:  MOVF   55,W
1967:  MOVWF  5F
1968:  MOVLW  20
1969:  MOVWF  60
196A:  BCF    0A.4
196B:  BCF    0A.3
196C:  BCF    03.5
196D:  CALL   667
196E:  BSF    0A.4
196F:  BSF    0A.3
.................... 			else if(Flag_Set == 2 && Flag_Start == 1)	DisplayChar(2, Flag_Set + 8, ' ' ); 
1970:  GOTO   187
1971:  MOVF   67,W
1972:  SUBLW  02
1973:  BTFSS  03.2
1974:  GOTO   187
1975:  DECFSZ 68,W
1976:  GOTO   187
1977:  MOVLW  08
1978:  ADDWF  67,W
1979:  BSF    03.5
197A:  MOVWF  55
197B:  MOVLW  02
197C:  MOVWF  5E
197D:  MOVF   55,W
197E:  MOVWF  5F
197F:  MOVLW  20
1980:  MOVWF  60
1981:  BCF    0A.4
1982:  BCF    0A.3
1983:  BCF    03.5
1984:  CALL   667
1985:  BSF    0A.4
1986:  BSF    0A.3
....................  
.................... 			if(Flag_Start != 3)	Flag_Set++; 
1987:  MOVF   68,W
1988:  SUBLW  03
1989:  BTFSS  03.2
198A:  INCF   67,F
.................... 		} 
.................... 		else if ( KeyIn == BTN_RIGHT){ 
198B:  GOTO   23A
198C:  BSF    03.5
198D:  MOVF   53,W
198E:  SUBLW  05
198F:  BTFSS  03.2
1990:  GOTO   1C3
.................... 			if(Flag_Set == 1 && Flag_Start == 1) DisplayChar(2, Flag_Set + 1, ' ' ); 
1991:  BCF    03.5
1992:  DECFSZ 67,W
1993:  GOTO   1A7
1994:  DECFSZ 68,W
1995:  GOTO   1A7
1996:  MOVLW  01
1997:  ADDWF  67,W
1998:  BSF    03.5
1999:  MOVWF  55
199A:  MOVLW  02
199B:  MOVWF  5E
199C:  MOVF   55,W
199D:  MOVWF  5F
199E:  MOVLW  20
199F:  MOVWF  60
19A0:  BCF    0A.4
19A1:  BCF    0A.3
19A2:  BCF    03.5
19A3:  CALL   667
19A4:  BSF    0A.4
19A5:  BSF    0A.3
.................... 			else if(Flag_Set == 2 && Flag_Start == 1) DisplayChar(2, Flag_Set + 8, ' ' ); 
19A6:  GOTO   1BD
19A7:  MOVF   67,W
19A8:  SUBLW  02
19A9:  BTFSS  03.2
19AA:  GOTO   1BD
19AB:  DECFSZ 68,W
19AC:  GOTO   1BD
19AD:  MOVLW  08
19AE:  ADDWF  67,W
19AF:  BSF    03.5
19B0:  MOVWF  55
19B1:  MOVLW  02
19B2:  MOVWF  5E
19B3:  MOVF   55,W
19B4:  MOVWF  5F
19B5:  MOVLW  20
19B6:  MOVWF  60
19B7:  BCF    0A.4
19B8:  BCF    0A.3
19B9:  BCF    03.5
19BA:  CALL   667
19BB:  BSF    0A.4
19BC:  BSF    0A.3
.................... 			if(Flag_Start != 3)	Flag_Set--; 
19BD:  MOVF   68,W
19BE:  SUBLW  03
19BF:  BTFSS  03.2
19C0:  DECF   67,F
.................... 		} 
.................... 		else if ( KeyIn == BTN_STOP){ 
19C1:  GOTO   23A
19C2:  BSF    03.5
19C3:  MOVF   53,W
19C4:  SUBLW  02
19C5:  BTFSS  03.2
19C6:  GOTO   1CD
.................... 			machine_state = STATE_EDIT_MODE; 
19C7:  MOVLW  01
19C8:  BCF    03.5
19C9:  MOVWF  2A
.................... 			return; 
19CA:  GOTO   274
.................... 		} 
.................... 		else if ( KeyIn == BTN_RUN){ 
19CB:  GOTO   23A
19CC:  BSF    03.5
19CD:  DECFSZ 53,W
19CE:  GOTO   23B
.................... 			Flag_Btn = 2; 
19CF:  MOVLW  02
19D0:  BCF    03.5
19D1:  MOVWF  66
.................... 			if(Flag_Set == 1 && Flag_Start != 3) 
19D2:  DECFSZ 67,W
19D3:  GOTO   23A
19D4:  MOVF   68,W
19D5:  SUBLW  03
19D6:  BTFSC  03.2
19D7:  GOTO   23A
.................... 			{ 
.................... 				Flag_Start = 3; 
19D8:  MOVLW  03
19D9:  MOVWF  68
.................... 				strcpy(Trip_Message, "                    "); 
19DA:  BSF    03.5
19DB:  CLRF   55
19DC:  CLRF   56
19DD:  MOVLW  BE
19DE:  MOVWF  04
19DF:  MOVF   55,W
19E0:  ADDWF  04,F
19E1:  MOVF   56,W
19E2:  BCF    0A.4
19E3:  BCF    0A.3
19E4:  BCF    03.5
19E5:  CALL   03E
19E6:  BSF    0A.4
19E7:  BSF    0A.3
19E8:  MOVWF  00
19E9:  IORLW  00
19EA:  BTFSC  03.2
19EB:  GOTO   1F1
19EC:  BSF    03.5
19ED:  INCF   56,F
19EE:  INCF   55,F
19EF:  GOTO   1DD
19F0:  BCF    03.5
.................... 				Lcd_Clear(); 
19F1:  MOVLW  01
19F2:  BSF    03.5
19F3:  MOVWF  5F
19F4:  BCF    0A.4
19F5:  BCF    0A.3
19F6:  BCF    03.5
19F7:  CALL   59C
19F8:  BSF    0A.4
19F9:  BSF    0A.3
.................... 				Lcd_x_posi = 0, Lcd_y_posi = 0; 
19FA:  CLRF   61
19FB:  CLRF   62
.................... 				if(Flag_Page == 3) 
19FC:  MOVF   69,W
19FD:  SUBLW  03
19FE:  BTFSS  03.2
19FF:  GOTO   218
.................... 					strcpy(gSciTxBuf,"9:4:907:0.000e-0"); 
1A00:  BSF    03.5
1A01:  CLRF   55
1A02:  CLRF   56
1A03:  MOVLW  3A
1A04:  MOVWF  04
1A05:  MOVF   55,W
1A06:  ADDWF  04,F
1A07:  MOVF   56,W
1A08:  BCF    0A.4
1A09:  BCF    0A.3
1A0A:  BCF    03.5
1A0B:  CALL   46D
1A0C:  BSF    0A.4
1A0D:  BSF    0A.3
1A0E:  MOVWF  00
1A0F:  IORLW  00
1A10:  BTFSC  03.2
1A11:  GOTO   217
1A12:  BSF    03.5
1A13:  INCF   56,F
1A14:  INCF   55,F
1A15:  GOTO   203
1A16:  BCF    03.5
.................... 				else if(Flag_Page == 4) 
1A17:  GOTO   233
1A18:  MOVF   69,W
1A19:  SUBLW  04
1A1A:  BTFSS  03.2
1A1B:  GOTO   233
.................... 					strcpy(gSciTxBuf,"9:4:907:1.000e-0"); 
1A1C:  BSF    03.5
1A1D:  CLRF   55
1A1E:  CLRF   56
1A1F:  MOVLW  3A
1A20:  MOVWF  04
1A21:  MOVF   55,W
1A22:  ADDWF  04,F
1A23:  MOVF   56,W
1A24:  BCF    0A.4
1A25:  BCF    0A.3
1A26:  BCF    03.5
1A27:  CALL   482
1A28:  BSF    0A.4
1A29:  BSF    0A.3
1A2A:  MOVWF  00
1A2B:  IORLW  00
1A2C:  BTFSC  03.2
1A2D:  GOTO   233
1A2E:  BSF    03.5
1A2F:  INCF   56,F
1A30:  INCF   55,F
1A31:  GOTO   21F
1A32:  BCF    03.5
.................... 				SendSciString( gSciTxBuf ); 
1A33:  MOVLW  3A
1A34:  BSF    03.5
1A35:  MOVWF  59
1A36:  BCF    0A.4
1A37:  BCF    03.5
1A38:  CALL   309
1A39:  BSF    0A.4
1A3A:  BSF    03.5
.................... 			} 
.................... 		} 
.................... 		if(Flag_Set > 2)	 Flag_Set = 1; 
1A3B:  BCF    03.5
1A3C:  MOVF   67,W
1A3D:  SUBLW  02
1A3E:  BTFSC  03.0
1A3F:  GOTO   243
1A40:  MOVLW  01
1A41:  MOVWF  67
.................... 		else if(Flag_Set < 1) Flag_Set = 2; 
1A42:  GOTO   248
1A43:  MOVF   67,F
1A44:  BTFSS  03.2
1A45:  GOTO   248
1A46:  MOVLW  02
1A47:  MOVWF  67
.................... 	 
.................... 		if(Flag_Set == 1 && Flag_Start == 1) 		DisplayChar(2, Flag_Set + 1, '*' ); 
1A48:  DECFSZ 67,W
1A49:  GOTO   25D
1A4A:  DECFSZ 68,W
1A4B:  GOTO   25D
1A4C:  MOVLW  01
1A4D:  ADDWF  67,W
1A4E:  BSF    03.5
1A4F:  MOVWF  55
1A50:  MOVLW  02
1A51:  MOVWF  5E
1A52:  MOVF   55,W
1A53:  MOVWF  5F
1A54:  MOVLW  2A
1A55:  MOVWF  60
1A56:  BCF    0A.4
1A57:  BCF    0A.3
1A58:  BCF    03.5
1A59:  CALL   667
1A5A:  BSF    0A.4
1A5B:  BSF    0A.3
.................... 		else if(Flag_Set == 2 && Flag_Start == 1)	DisplayChar(2, Flag_Set + 8, '*' ); 
1A5C:  GOTO   273
1A5D:  MOVF   67,W
1A5E:  SUBLW  02
1A5F:  BTFSS  03.2
1A60:  GOTO   273
1A61:  DECFSZ 68,W
1A62:  GOTO   273
1A63:  MOVLW  08
1A64:  ADDWF  67,W
1A65:  BSF    03.5
1A66:  MOVWF  55
1A67:  MOVLW  02
1A68:  MOVWF  5E
1A69:  MOVF   55,W
1A6A:  MOVWF  5F
1A6B:  MOVLW  2A
1A6C:  MOVWF  60
1A6D:  BCF    0A.4
1A6E:  BCF    0A.3
1A6F:  BCF    03.5
1A70:  CALL   667
1A71:  BSF    0A.4
1A72:  BSF    0A.3
.................... 	} 
1A73:  GOTO   14C
1A74:  BSF    03.5
.................... } 
....................  
....................  
.................... #SEPARATE 
.................... void PositionTestProc() 
.................... {/* 
.................... 	BUTTON KeyIn; 
.................... 	 
.................... 	KeyIn = GetKey(); 
....................  
.................... 	switch(KeyIn) 
.................... 	{ 
.................... 	case BTN_RUN: 
.................... 		Lcd_x_posi = 0; 
.................... 		Lcd_y_posi = 0; 
.................... 		strcpy(gSciTxBuf,"9:4:905:9.000e-0"); 
.................... 		SendSciString( gSciTxBuf ); 
.................... 		break; 
.................... 	case BTN_STOP: 
.................... 		Lcd_x_posi = 0; 
.................... 		Lcd_y_posi = 0; 
.................... 		Flag_Btn = 1; 
.................... 		Flag_Start = 0; 
.................... 		enter_set_mode(); 
.................... 		break; 
.................... 	default: 
.................... 		break; 
.................... 	}*/ 
.................... } 
*
07FA:  BSF    0A.3
07FB:  BSF    0A.4
07FC:  GOTO   284 (RETURN)
.................... //------------------------------ 
.................... // End 
.................... //------------------------------ 
....................  
....................  
....................  
.................... //#use fast_io(C)		// SPI  fast_io  . 2005.02.21 
....................  
.................... #SEPARATE 
.................... void PowerOnSetProc(); 
.................... /*		 
.................... 		if( secWatchDog > 60 ){ 
.................... 			secWatchDog = 0; 
.................... 			delay_ms(100);  
.................... 			sci_rx_msg_start = sci_rx_msg_end = 0; 
.................... 			LCD_Initialization();				 
.................... 			machine_state = STATE_MONITOR_MODE; 
.................... 			delay_ms(100);  
.................... 		} 
.................... 		 
.................... 		if(machine_state != STATE_EDIT_MODE  && machine_state != STATE_TIME_MODE) 
.................... 			LCD_Cmd(CURSOR_OFF); 
....................  
.................... */ 
.................... #SEPARATE 
.................... void main() 
.................... { 
*
1800:  CLRF   04
1801:  MOVLW  1F
1802:  ANDWF  03,F
1803:  BSF    03.5
1804:  BSF    1F.0
1805:  BSF    1F.1
1806:  BSF    1F.2
1807:  BCF    1F.3
1808:  MOVLW  07
1809:  MOVWF  1C
....................  
.................... 	PowerOnSetProc(); 
*
1880:  BCF    0A.4
1881:  BCF    0A.3
1882:  GOTO   6CE
1883:  BSF    0A.4
1884:  BSF    0A.3
.................... 	 
.................... 	LCD_Cmd(DISPLAY_CURSE_BLINK_ON); 
1885:  MOVLW  0F
1886:  BSF    03.5
1887:  MOVWF  5F
1888:  BCF    0A.4
1889:  BCF    0A.3
188A:  BCF    03.5
188B:  CALL   59C
188C:  BSF    0A.4
188D:  BSF    0A.3
.................... 	machine_state = STATE_MONITOR_MODE; 
188E:  CLRF   2A
....................  
.................... 	while(1){ 
....................  
.................... 		if( secWatchDog > 60 ){ 
188F:  MOVF   2C,F
1890:  BTFSS  03.2
1891:  GOTO   096
1892:  MOVF   2B,W
1893:  SUBLW  3C
1894:  BTFSC  03.0
1895:  GOTO   0B3
.................... 			secWatchDog = 0; 
1896:  CLRF   2C
1897:  CLRF   2B
.................... 			delay_ms(100);  
1898:  MOVLW  64
1899:  BSF    03.5
189A:  MOVWF  65
189B:  BCF    0A.4
189C:  BCF    0A.3
189D:  BCF    03.5
189E:  CALL   587
189F:  BSF    0A.4
18A0:  BSF    0A.3
.................... 			sci_rx_msg_start = sci_rx_msg_end = 0; 
18A1:  CLRF   65
18A2:  MOVF   65,W
18A3:  MOVWF  64
.................... 			LCD_Initialization();				 
18A4:  BCF    0A.4
18A5:  BCF    0A.3
18A6:  CALL   5C0
18A7:  BSF    0A.4
18A8:  BSF    0A.3
.................... 			machine_state = STATE_MONITOR_MODE; 
18A9:  CLRF   2A
.................... 			delay_ms(100);  
18AA:  MOVLW  64
18AB:  BSF    03.5
18AC:  MOVWF  65
18AD:  BCF    0A.4
18AE:  BCF    0A.3
18AF:  BCF    03.5
18B0:  CALL   587
18B1:  BSF    0A.4
18B2:  BSF    0A.3
.................... 		} 
.................... 		 
....................  
.................... 		if	   ( machine_state == STATE_SET_MODE ) SelectMenuPage1();			//   
18B3:  MOVF   2A,W
18B4:  SUBLW  03
18B5:  BTFSS  03.2
18B6:  GOTO   0BA
18B7:  BCF    0A.4
18B8:  GOTO   05F
18B9:  BSF    0A.4
.................... 		else if( machine_state == STATE_SET_MODE2 ) SelectMenuPage2();			//   
18BA:  MOVF   2A,W
18BB:  SUBLW  0B
18BC:  BTFSS  03.2
18BD:  GOTO   0C1
18BE:  BCF    0A.4
18BF:  GOTO   164
18C0:  BSF    0A.4
.................... 		else if( machine_state == STATE_EDIT_MODE) EditCodeDataProc();			//    
18C1:  DECFSZ 2A,W
18C2:  GOTO   0C6
18C3:  BCF    0A.4
18C4:  GOTO   34F
18C5:  BSF    0A.4
.................... 		else if( machine_state == STATE_TRIP_MODE) TripCodeDataProc();			// Trip  ( ) 
18C6:  MOVF   2A,W
18C7:  SUBLW  02
18C8:  BTFSS  03.2
18C9:  GOTO   0CD
18CA:  BCF    0A.3
18CB:  GOTO   000
18CC:  BSF    0A.3
.................... 		else if( machine_state == STATE_RESET_MODE) ResetCodeDataProc();		// Reset  
18CD:  MOVF   2A,W
18CE:  SUBLW  04
18CF:  BTFSS  03.2
18D0:  GOTO   0D4
18D1:  BCF    0A.4
18D2:  GOTO   731
18D3:  BSF    0A.4
.................... 		else if( machine_state == STATE_TIME_MODE) TimeDataSetProc();			//    
18D4:  MOVF   2A,W
18D5:  SUBLW  05
18D6:  BTFSS  03.2
18D7:  GOTO   0DB
18D8:  BCF    0A.3
18D9:  GOTO   154
18DA:  BSF    0A.3
.................... 		// else if( machine_state == STATE_ERROR_MODE)	ErrorCodeDataProc();		// TRIP ERROR  
.................... 		else if( machine_state == RECORD_CLEAR_MODE) RecordClearProc();			// Trip    
18DB:  MOVF   2A,W
18DC:  SUBLW  07
18DD:  BTFSS  03.2
18DE:  GOTO   0E2
18DF:  BCF    0A.3
18E0:  GOTO   3AE
18E1:  BSF    0A.3
.................... 		else if( machine_state == SYSTEM_INIT_MODE) SystemInitProc();			// EEPROM DATA  
18E2:  MOVF   2A,W
18E3:  SUBLW  08
18E4:  BTFSS  03.2
18E5:  GOTO   0E9
18E6:  BCF    0A.3
18E7:  GOTO   451
18E8:  BSF    0A.3
.................... 		else if( machine_state == CHECKSUM_MODE) CheckSumErrorProc();			// Checksum  
18E9:  MOVF   2A,W
18EA:  SUBLW  09
18EB:  BTFSS  03.2
18EC:  GOTO   277
.................... 		else if( machine_state == STATE_POSITION_MODE) PositionTestProc();		// TEST 
*
1A75:  GOTO   285
1A76:  BCF    03.5
1A77:  MOVF   2A,W
1A78:  SUBLW  0A
1A79:  BTFSS  03.2
1A7A:  GOTO   280
1A7B:  BCF    0A.4
1A7C:  BCF    0A.3
1A7D:  GOTO   7FA
1A7E:  BSF    0A.4
1A7F:  BSF    0A.3
.................... 		else {   machine_state = STATE_MONITOR_MODE; monitor_converter();} 
1A80:  CLRF   2A
1A81:  BCF    0A.3
1A82:  GOTO   4DF
1A83:  BSF    0A.3
1A84:  BSF    03.5
.................... 	} 
1A85:  BCF    03.5
1A86:  GOTO   08F
.................... } 
....................  
.................... #SEPARATE 
.................... void PowerOnSetProc() 
1A87:  GOTO   287
.................... {		 	 
.................... 	port_b_pullups(TRUE);	output_b(0xff); output_c(0xff);		 
*
06CE:  BSF    03.5
06CF:  BCF    01.7
06D0:  CLRF   06
06D1:  MOVLW  FF
06D2:  BCF    03.5
06D3:  MOVWF  06
06D4:  MOVLW  00
06D5:  MOVWF  7C
06D6:  BSF    03.5
06D7:  CLRF   07
06D8:  MOVLW  FF
06D9:  BCF    03.5
06DA:  MOVWF  07
*
187C:  MOVLW  FF
187D:  MOVWF  7C
.................... 	 
.................... 	set_tris_A(0b00000011);	set_tris_B(0b01111111); 
*
06DB:  MOVLW  03
06DC:  BSF    03.5
06DD:  MOVWF  05
06DE:  MOVLW  7F
06DF:  MOVWF  06
....................  
.................... 	set_tris_D(0b00000000);	set_tris_E(0b00000000); 
06E0:  MOVLW  00
06E1:  MOVWF  08
06E2:  BCF    09.0
06E3:  BCF    09.1
06E4:  BCF    09.2
.................... 	 
.................... 	set_tris_C(0b10010000); 
06E5:  MOVLW  90
06E6:  MOVWF  07
06E7:  MOVWF  7C
.................... 	 
.................... 	setup_adc_ports(NO_ANALOGS); 
06E8:  BSF    1F.0
06E9:  BSF    1F.1
06EA:  BSF    1F.2
06EB:  BCF    1F.3
.................... 	setup_adc(ADC_OFF); 
06EC:  BCF    03.5
06ED:  BCF    1F.0
....................  
.................... 	setup_comparator(NC_NC_NC_NC); 
06EE:  MOVLW  07
06EF:  BSF    03.5
06F0:  MOVWF  1C
06F1:  MOVF   05,W
06F2:  MOVLW  06
06F3:  MOVWF  77
06F4:  DECFSZ 77,F
06F5:  GOTO   6F4
06F6:  NOP
06F7:  MOVF   1C,W
06F8:  BCF    03.5
06F9:  BCF    0D.6
.................... 	setup_vref(FALSE); 
06FA:  BSF    03.5
06FB:  CLRF   1D
.................... 	setup_timer_0(RTCC_INTERNAL|RTCC_DIV_1); 
06FC:  MOVF   01,W
06FD:  ANDLW  C7
06FE:  IORLW  08
06FF:  MOVWF  01
....................  
.................... 	setup_timer_2(T2_DIV_BY_4,250,2);		 // 8,000,000 / (4 * 8 * (249 +1)) = 1,000 = 1/1000 sec 
0700:  MOVLW  08
0701:  MOVWF  78
0702:  IORLW  05
0703:  BCF    03.5
0704:  MOVWF  12
0705:  MOVLW  FA
0706:  BSF    03.5
0707:  MOVWF  12
.................... 	set_timer2(0); 
0708:  BCF    03.5
0709:  CLRF   11
.................... 	enable_interrupts(INT_TIMER2); 
070A:  BSF    03.5
070B:  BSF    0C.1
.................... 	 
.................... 	// LCD           
.................... 	delay_ms(100);  
070C:  MOVLW  64
070D:  MOVWF  65
070E:  BCF    03.5
070F:  CALL   587
....................  
.................... 	LCD_Initialization();				 
0710:  CALL   5C0
....................  
.................... 	setup_psp(PSP_DISABLED);	 
0711:  BSF    03.5
0712:  BCF    09.4
.................... 	delay_ms(250); 
0713:  MOVLW  FA
0714:  MOVWF  65
0715:  BCF    03.5
0716:  CALL   587
.................... 	SerialPortSetup();	 
0717:  CALL   612
....................  
.................... 	LCD_Clear(); 
0718:  MOVLW  01
0719:  BSF    03.5
071A:  MOVWF  5F
071B:  BCF    03.5
071C:  CALL   59C
.................... 	enable_interrupts(INT_RDA);	 
071D:  BSF    03.5
071E:  BSF    0C.5
.................... 	enable_interrupts(GLOBAL);	 
071F:  MOVLW  C0
0720:  BCF    03.5
0721:  IORWF  0B,F
....................  
....................              //"01234567890123456789" 
.................... 	strcpy(st, "DIGITAL OPERAT      "); PrintLCD(0,0,st); 
0722:  BSF    03.5
0723:  CLRF   53
0724:  CLRF   54
0725:  MOVLW  4A
0726:  MOVWF  04
0727:  MOVF   53,W
0728:  ADDWF  04,F
0729:  MOVF   54,W
072A:  BCF    03.5
072B:  CALL   497
072C:  MOVWF  00
072D:  IORLW  00
072E:  BTFSC  03.2
072F:  GOTO   735
0730:  BSF    03.5
0731:  INCF   54,F
0732:  INCF   53,F
0733:  GOTO   725
0734:  BCF    03.5
0735:  BSF    03.5
0736:  CLRF   59
0737:  CLRF   5A
0738:  MOVLW  4A
0739:  MOVWF  5B
073A:  BCF    03.5
073B:  CALL   6B0
.................... 	strcpy(st, "[EwDo-21] v2.60     "); PrintLCD(1,0,st); 
073C:  BSF    03.5
073D:  CLRF   53
073E:  CLRF   54
073F:  MOVLW  4A
0740:  MOVWF  04
0741:  MOVF   53,W
0742:  ADDWF  04,F
0743:  MOVF   54,W
0744:  BCF    03.5
0745:  CALL   4B0
0746:  MOVWF  00
0747:  IORLW  00
0748:  BTFSC  03.2
0749:  GOTO   74F
074A:  BSF    03.5
074B:  INCF   54,F
074C:  INCF   53,F
074D:  GOTO   73F
074E:  BCF    03.5
074F:  MOVLW  01
0750:  BSF    03.5
0751:  MOVWF  59
0752:  CLRF   5A
0753:  MOVLW  4A
0754:  MOVWF  5B
0755:  BCF    03.5
0756:  CALL   6B0
.................... 	strcpy(st, "EunWho Power Electic"); PrintLCD(2,0,st); 
0757:  BSF    03.5
0758:  CLRF   53
0759:  CLRF   54
075A:  MOVLW  4A
075B:  MOVWF  04
075C:  MOVF   53,W
075D:  ADDWF  04,F
075E:  MOVF   54,W
075F:  BCF    03.5
0760:  CALL   4C9
0761:  MOVWF  00
0762:  IORLW  00
0763:  BTFSC  03.2
0764:  GOTO   76A
0765:  BSF    03.5
0766:  INCF   54,F
0767:  INCF   53,F
0768:  GOTO   75A
0769:  BCF    03.5
076A:  MOVLW  02
076B:  BSF    03.5
076C:  MOVWF  59
076D:  CLRF   5A
076E:  MOVLW  4A
076F:  MOVWF  5B
0770:  BCF    03.5
0771:  CALL   6B0
.................... 	strcpy(st, "TEL 82-51-262-7532  "); PrintLCD(3,0,st); 
0772:  BSF    03.5
0773:  CLRF   53
0774:  CLRF   54
0775:  MOVLW  4A
0776:  MOVWF  04
0777:  MOVF   53,W
0778:  ADDWF  04,F
0779:  MOVF   54,W
077A:  BCF    03.5
077B:  CALL   4E2
077C:  MOVWF  00
077D:  IORLW  00
077E:  BTFSC  03.2
077F:  GOTO   785
0780:  BSF    03.5
0781:  INCF   54,F
0782:  INCF   53,F
0783:  GOTO   775
0784:  BCF    03.5
0785:  MOVLW  03
0786:  BSF    03.5
0787:  MOVWF  59
0788:  CLRF   5A
0789:  MOVLW  4A
078A:  MOVWF  5B
078B:  BCF    03.5
078C:  CALL   6B0
.................... 	delay_ms(3250); 
078D:  MOVLW  0D
078E:  BSF    03.5
078F:  MOVWF  53
0790:  MOVLW  FA
0791:  MOVWF  65
0792:  BCF    03.5
0793:  CALL   587
0794:  BSF    03.5
0795:  DECFSZ 53,F
0796:  GOTO   790
.................... 	delay_ms(3250); 
0797:  MOVLW  0D
0798:  MOVWF  53
0799:  MOVLW  FA
079A:  MOVWF  65
079B:  BCF    03.5
079C:  CALL   587
079D:  BSF    03.5
079E:  DECFSZ 53,F
079F:  GOTO   799
.................... } 
07A0:  BCF    03.5
07A1:  BSF    0A.3
07A2:  BSF    0A.4
07A3:  GOTO   083 (RETURN)
....................  
.................... #INT_TIMER2 
.................... void Timer2_Interrupt() 
.................... { 
.................... 	static long watchdog=0; 
*
187E:  CLRF   7D
187F:  CLRF   7E
.................... 	#asm 
.................... 		clrwdt				// watch dog timer reset. 
*
056C:  CLRWDT
.................... 	#endasm 
....................  
.................... 	 
.................... 	gulRtsCount ++;			// 1 msec count  
056D:  INCF   5F,F
056E:  BTFSC  03.2
056F:  INCF   60,F
.................... 	watchdog ++; 
0570:  INCF   7D,F
0571:  BTFSC  03.2
0572:  INCF   7E,F
.................... 	if(watchdog  > 1000){ 
0573:  MOVF   7E,W
0574:  SUBLW  02
0575:  BTFSC  03.0
0576:  GOTO   583
0577:  XORLW  FF
0578:  BTFSS  03.2
0579:  GOTO   57E
057A:  MOVF   7D,W
057B:  SUBLW  E8
057C:  BTFSC  03.0
057D:  GOTO   583
.................... 		watchdog = 0; 
057E:  CLRF   7E
057F:  CLRF   7D
.................... 		secWatchDog++; 
0580:  INCF   2B,F
0581:  BTFSC  03.2
0582:  INCF   2C,F
.................... 	} 
....................   
.................... #if TEST_MODE 
.................... 	if( glRtsCount % 2 ) 	output_high(TEST_PIN);	// debug 
.................... 	else					output_low(TEST_PIN);	// 
.................... #endif 
.................... } 
0583:  BCF    0C.1
0584:  BCF    0A.3
0585:  BCF    0A.4
0586:  GOTO   025

Configuration Fuses:
   Word  1: 373A   HS NOWDT NOPUT DEBUG NOPROTECT NOBROWNOUT NOLVP NOCPD NOWRT
